---
triple:          'arm64-apple-darwin'
binary-path:     Laba_3
relocations:
  - { offsetInCU: 0x52, offset: 0x52, size: 0x8, addend: 0x0, symName: __ZL9INPUT_DIR, symObjAddr: 0xCE680, symBinAddr: 0x100018000, symSize: 0x0 }
  - { offsetInCU: 0x7551, offset: 0x7551, size: 0x8, addend: 0x0, symName: __ZNSt3__14__fs10filesystem5beginB8ue170006ENS1_18directory_iteratorE, symObjAddr: 0x45C, symBinAddr: 0x1000058A8, symSize: 0x38 }
  - { offsetInCU: 0x757E, offset: 0x757E, size: 0x8, addend: 0x0, symName: __ZNSt3__14__fs10filesystem3endB8ue170006ENS1_18directory_iteratorE, symObjAddr: 0x4F4, symBinAddr: 0x100005940, symSize: 0x34 }
  - { offsetInCU: 0x75A7, offset: 0x75A7, size: 0x8, addend: 0x0, symName: __ZNSt3__14__fs10filesystemneB8ue170006ERKNS1_18directory_iteratorES4_, symObjAddr: 0x528, symBinAddr: 0x100005974, symSize: 0x34 }
  - { offsetInCU: 0x75E1, offset: 0x75E1, size: 0x8, addend: 0x0, symName: __ZNSt3__14__fs10filesystem6existsB8ue170006ERKNS1_4pathE, symObjAddr: 0x14DC, symBinAddr: 0x100006928, symSize: 0x50 }
  - { offsetInCU: 0x760D, offset: 0x760D, size: 0x8, addend: 0x0, symName: __ZNSt3__14__fs10filesystem16create_directoryB8ue170006ERKNS1_4pathE, symObjAddr: 0x152C, symBinAddr: 0x100006978, symSize: 0x2C }
  - { offsetInCU: 0x7639, offset: 0x7639, size: 0x8, addend: 0x0, symName: __ZNSt3__14__fs10filesystemeqB8ue170006ERKNS1_18directory_iteratorES4_, symObjAddr: 0x3684, symBinAddr: 0x100008AD0, symSize: 0x30 }
  - { offsetInCU: 0x7673, offset: 0x7673, size: 0x8, addend: 0x0, symName: __ZNSt3__14__fs10filesystem6existsB8ue170006ENS1_11file_statusE, symObjAddr: 0x394C, symBinAddr: 0x100008D98, symSize: 0x78 }
  - { offsetInCU: 0x76A0, offset: 0x76A0, size: 0x8, addend: 0x0, symName: __ZNSt3__14__fs10filesystem12status_knownB8ue170006ENS1_11file_statusE, symObjAddr: 0x3A7C, symBinAddr: 0x100008EC8, symSize: 0x30 }
  - { offsetInCU: 0x15A93, offset: 0x15A93, size: 0x8, addend: 0x0, symName: __ZNSt3__124__put_character_sequenceB8ue170006IcNS_11char_traitsIcEEEERNS_13basic_ostreamIT_T0_EES7_PKS4_m, symObjAddr: 0x4450, symBinAddr: 0x10000989C, symSize: 0x1EC }
  - { offsetInCU: 0x1726A, offset: 0x1726A, size: 0x8, addend: 0x0, symName: __ZNSt3__16copy_nB8ue170006IPKcmPcEENS_9enable_ifIXsr37__has_random_access_iterator_categoryIT_EE5valueET1_E4typeES5_T0_S6_, symObjAddr: 0x9B74, symBinAddr: 0x10000EFC0, symSize: 0x44 }
  - { offsetInCU: 0x1D540, offset: 0x1D540, size: 0x8, addend: 0x0, symName: __ZNSt3__1lsB8ue170006INS_11char_traitsIcEEEERNS_13basic_ostreamIcT_EES6_PKc, symObjAddr: 0x664, symBinAddr: 0x100005AB0, symSize: 0x48 }
  - { offsetInCU: 0x1D586, offset: 0x1D586, size: 0x8, addend: 0x0, symName: __ZNSt3__1lsB8ue170006IcNS_11char_traitsIcEENS_9allocatorIcEEEERNS_13basic_ostreamIT_T0_EES9_RKNS_12basic_stringIS6_S7_T1_EE, symObjAddr: 0x6AC, symBinAddr: 0x100005AF8, symSize: 0x4C }
  - { offsetInCU: 0x1D5DE, offset: 0x1D5DE, size: 0x8, addend: 0x0, symName: __ZNSt3__14endlB8ue170006IcNS_11char_traitsIcEEEERNS_13basic_ostreamIT_T0_EES7_, symObjAddr: 0x724, symBinAddr: 0x100005B70, symSize: 0x58 }
  - { offsetInCU: 0x1D61E, offset: 0x1D61E, size: 0x8, addend: 0x0, symName: __ZNSt3__1lsB8ue170006IcNS_11char_traitsIcEEEERNS_13basic_ostreamIT_T0_EES7_NS_11__thread_idE, symObjAddr: 0xE3C, symBinAddr: 0x100006288, symSize: 0xF8 }
  - { offsetInCU: 0x1D67E, offset: 0x1D67E, size: 0x8, addend: 0x0, symName: __ZNSt3__111this_thread6get_idB8ue170006Ev, symObjAddr: 0xF34, symBinAddr: 0x100006380, symSize: 0x3C }
  - { offsetInCU: 0x1D69C, offset: 0x1D69C, size: 0x8, addend: 0x0, symName: __ZNSt3__1plB8ue170006IcNS_11char_traitsIcEENS_9allocatorIcEEEENS_12basic_stringIT_T0_T1_EEOS9_RKS9_, symObjAddr: 0x1030, symBinAddr: 0x10000647C, symSize: 0x40 }
  - { offsetInCU: 0x1D6F4, offset: 0x1D6F4, size: 0x8, addend: 0x0, symName: __ZNSt3__1plB8ue170006IcNS_11char_traitsIcEENS_9allocatorIcEEEENS_12basic_stringIT_T0_T1_EERKS9_PKS6_, symObjAddr: 0x1070, symBinAddr: 0x1000064BC, symSize: 0x11C }
  - { offsetInCU: 0x1D795, offset: 0x1D795, size: 0x8, addend: 0x0, symName: __ZNSt3__1neB8ue170006IPNS_6threadEEEbRKNS_11__wrap_iterIT_EES7_, symObjAddr: 0x1694, symBinAddr: 0x100006AE0, symSize: 0x34 }
  - { offsetInCU: 0x1D7D8, offset: 0x1D7D8, size: 0x8, addend: 0x0, symName: __ZNSt3__112__to_addressB8ue170006INS_4pairINS_12basic_stringIcNS_11char_traitsIcEENS_9allocatorIcEEEES7_EEEEPT_SA_, symObjAddr: 0x2240, symBinAddr: 0x10000768C, symSize: 0x14 }
  - { offsetInCU: 0x1D80D, offset: 0x1D80D, size: 0x8, addend: 0x0, symName: __ZNSt3__1neB8ue170006ERKNS_16__deque_iteratorINS_4pairINS_12basic_stringIcNS_11char_traitsIcEENS_9allocatorIcEEEES7_EEPS8_RS8_PS9_lLl85EEESE_, symObjAddr: 0x2978, symBinAddr: 0x100007DC4, symSize: 0x34 }
  - { offsetInCU: 0x1D84A, offset: 0x1D84A, size: 0x8, addend: 0x0, symName: __ZNSt3__1eqB8ue170006ERKNS_16__deque_iteratorINS_4pairINS_12basic_stringIcNS_11char_traitsIcEENS_9allocatorIcEEEES7_EEPS8_RS8_PS9_lLl85EEESE_, symObjAddr: 0x2B5C, symBinAddr: 0x100007FA8, symSize: 0x30 }
  - { offsetInCU: 0x1D887, offset: 0x1D887, size: 0x8, addend: 0x0, symName: __ZNSt3__119__libcpp_deallocateB8ue170006EPvmm, symObjAddr: 0x2D6C, symBinAddr: 0x1000081B8, symSize: 0x60 }
  - { offsetInCU: 0x1D8EC, offset: 0x1D8EC, size: 0x8, addend: 0x0, symName: __ZNSt3__124__is_overaligned_for_newB8ue170006Em, symObjAddr: 0x2DCC, symBinAddr: 0x100008218, symSize: 0x20 }
  - { offsetInCU: 0x1D91A, offset: 0x1D91A, size: 0x8, addend: 0x0, symName: __ZNSt3__127__do_deallocate_handle_sizeB8ue170006IJSt11align_val_tEEEvPvmDpT_, symObjAddr: 0x2DEC, symBinAddr: 0x100008238, symSize: 0x30 }
  - { offsetInCU: 0x1D96D, offset: 0x1D96D, size: 0x8, addend: 0x0, symName: __ZNSt3__127__do_deallocate_handle_sizeB8ue170006IJEEEvPvmDpT_, symObjAddr: 0x2E1C, symBinAddr: 0x100008268, symSize: 0x28 }
  - { offsetInCU: 0x1D9AB, offset: 0x1D9AB, size: 0x8, addend: 0x0, symName: __ZNSt3__124__libcpp_operator_deleteB8ue170006IJPvSt11align_val_tEEEvDpT_, symObjAddr: 0x2E44, symBinAddr: 0x100008290, symSize: 0x2C }
  - { offsetInCU: 0x1D9F4, offset: 0x1D9F4, size: 0x8, addend: 0x0, symName: __ZNSt3__124__libcpp_operator_deleteB8ue170006IJPvEEEvDpT_, symObjAddr: 0x2E70, symBinAddr: 0x1000082BC, symSize: 0x24 }
  - { offsetInCU: 0x1DA29, offset: 0x1DA29, size: 0x8, addend: 0x0, symName: __ZNSt3__112__to_addressB8ue170006IPNS_4pairINS_12basic_stringIcNS_11char_traitsIcEENS_9allocatorIcEEEES7_EEEEPT_SB_, symObjAddr: 0x30F4, symBinAddr: 0x100008540, symSize: 0x14 }
  - { offsetInCU: 0x1DA5E, offset: 0x1DA5E, size: 0x8, addend: 0x0, symName: __ZNSt3__134__libcpp_atomic_refcount_incrementB8ue170006IlEET_RS1_, symObjAddr: 0x3420, symBinAddr: 0x10000886C, symSize: 0x30 }
  - { offsetInCU: 0x1DA93, offset: 0x1DA93, size: 0x8, addend: 0x0, symName: __ZNSt3__134__libcpp_atomic_refcount_decrementB8ue170006IlEET_RS1_, symObjAddr: 0x35B4, symBinAddr: 0x100008A00, symSize: 0x30 }
  - { offsetInCU: 0x1DAC8, offset: 0x1DAC8, size: 0x8, addend: 0x0, symName: __ZNSt3__1eqB8ue170006INS_4__fs10filesystem12__dir_streamES3_EEbRKNS_10shared_ptrIT_EERKNS4_IT0_EE, symObjAddr: 0x36B4, symBinAddr: 0x100008B00, symSize: 0x48 }
  - { offsetInCU: 0x1DB17, offset: 0x1DB17, size: 0x8, addend: 0x0, symName: __ZNSt3__115make_error_codeB8ue170006ENS_4errcE, symObjAddr: 0x39C4, symBinAddr: 0x100008E10, symSize: 0x40 }
  - { offsetInCU: 0x1DB43, offset: 0x1DB43, size: 0x8, addend: 0x0, symName: __ZNSt3__120__libcpp_unreachableB8ue170006Ev, symObjAddr: 0x3A38, symBinAddr: 0x100008E84, symSize: 0x4 }
  - { offsetInCU: 0x1DB5C, offset: 0x1DB5C, size: 0x8, addend: 0x0, symName: __ZNSt3__130__libcpp_thread_get_current_idB8ue170006Ev, symObjAddr: 0x4010, symBinAddr: 0x10000945C, symSize: 0x2C }
  - { offsetInCU: 0x1DB8A, offset: 0x1DB8A, size: 0x8, addend: 0x0, symName: __ZNSt3__122__libcpp_thread_get_idB8ue170006EPKP17_opaque_pthread_t, symObjAddr: 0x4070, symBinAddr: 0x1000094BC, symSize: 0x18 }
  - { offsetInCU: 0x1DBB8, offset: 0x1DBB8, size: 0x8, addend: 0x0, symName: __ZNSt3__1eqB8ue170006IPNS_6threadEEEbRKNS_11__wrap_iterIT_EES7_, symObjAddr: 0x4220, symBinAddr: 0x10000966C, symSize: 0x48 }
  - { offsetInCU: 0x1DBFB, offset: 0x1DBFB, size: 0x8, addend: 0x0, symName: __ZNSt3__118__constexpr_strlenB8ue170006EPKc, symObjAddr: 0x442C, symBinAddr: 0x100009878, symSize: 0x24 }
  - { offsetInCU: 0x1DC27, offset: 0x1DC27, size: 0x8, addend: 0x0, symName: __ZNSt3__116__pad_and_outputB8ue170006IcNS_11char_traitsIcEEEENS_19ostreambuf_iteratorIT_T0_EES6_PKS4_S8_S8_RNS_8ios_baseES4_, symObjAddr: 0x4658, symBinAddr: 0x100009AA4, symSize: 0x240 }
  - { offsetInCU: 0x1DCF6, offset: 0x1DCF6, size: 0x8, addend: 0x0, symName: __ZNSt3__112__to_addressB8ue170006IcEEPT_S2_, symObjAddr: 0x4AC8, symBinAddr: 0x100009F14, symSize: 0x14 }
  - { offsetInCU: 0x1DD5E, offset: 0x1DD5E, size: 0x8, addend: 0x0, symName: __ZNSt3__19use_facetB8ue170006INS_5ctypeIcEEEERKT_RKNS_6localeE, symObjAddr: 0x4CD8, symBinAddr: 0x10000A124, symSize: 0x2C }
  - { offsetInCU: 0x1E22B, offset: 0x1E22B, size: 0x8, addend: 0x0, symName: __ZNSt3__112__to_addressB8ue170006IKcEEPT_S3_, symObjAddr: 0x4D98, symBinAddr: 0x10000A1E4, symSize: 0x14 }
  - { offsetInCU: 0x1E293, offset: 0x1E293, size: 0x8, addend: 0x0, symName: __ZNSt3__112__to_addressB8ue170006IiEEPT_S2_, symObjAddr: 0x5310, symBinAddr: 0x10000A75C, symSize: 0x14 }
  - { offsetInCU: 0x1E2E4, offset: 0x1E2E4, size: 0x8, addend: 0x0, symName: __ZNSt3__18distanceB8ue170006IPKcEENS_15iterator_traitsIT_E15difference_typeES4_S4_, symObjAddr: 0x5800, symBinAddr: 0x10000AC4C, symSize: 0x2C }
  - { offsetInCU: 0x1E327, offset: 0x1E327, size: 0x8, addend: 0x0, symName: __ZNSt3__110__distanceB8ue170006IPKcEENS_15iterator_traitsIT_E15difference_typeES4_S4_NS_26random_access_iterator_tagE, symObjAddr: 0x5A1C, symBinAddr: 0x10000AE68, symSize: 0x20 }
  - { offsetInCU: 0x1E374, offset: 0x1E374, size: 0x8, addend: 0x0, symName: __ZNSt3__121__is_pointer_in_rangeB8ue170006IccLi0EEEbPKT_S3_PKT0_, symObjAddr: 0x5A3C, symBinAddr: 0x10000AE88, symSize: 0x68 }
  - { offsetInCU: 0x1E44A, offset: 0x1E44A, size: 0x8, addend: 0x0, symName: __ZNSt3__119__allocate_at_leastB8ue170006INS_9allocatorIcEEEENS_19__allocation_resultINS_16allocator_traitsIT_E7pointerEEERS5_m, symObjAddr: 0x5F24, symBinAddr: 0x10000B370, symSize: 0x40 }
  - { offsetInCU: 0x1E679, offset: 0x1E679, size: 0x8, addend: 0x0, symName: __ZNSt3__120__throw_length_errorB8ue170006EPKc, symObjAddr: 0x6154, symBinAddr: 0x10000B5A0, symSize: 0x64 }
  - { offsetInCU: 0x1E6A3, offset: 0x1E6A3, size: 0x8, addend: 0x0, symName: __ZNSt3__117__libcpp_allocateB8ue170006Emm, symObjAddr: 0x62C4, symBinAddr: 0x10000B710, symSize: 0x60 }
  - { offsetInCU: 0x1E6FD, offset: 0x1E6FD, size: 0x8, addend: 0x0, symName: __ZNSt3__121__libcpp_operator_newB8ue170006IJmSt11align_val_tEEEPvDpT_, symObjAddr: 0x6324, symBinAddr: 0x10000B770, symSize: 0x2C }
  - { offsetInCU: 0x1E74A, offset: 0x1E74A, size: 0x8, addend: 0x0, symName: __ZNSt3__121__libcpp_operator_newB8ue170006IJmEEEPvDpT_, symObjAddr: 0x6350, symBinAddr: 0x10000B79C, symSize: 0x24 }
  - { offsetInCU: 0x1E813, offset: 0x1E813, size: 0x8, addend: 0x0, symName: __ZNSt3__13maxB8ue170006ImEERKT_S3_S3_, symObjAddr: 0x717C, symBinAddr: 0x10000C5C8, symSize: 0x2C }
  - { offsetInCU: 0x1ECAF, offset: 0x1ECAF, size: 0x8, addend: 0x0, symName: __ZNSt3__14swapB8ue170006IPPNS_4pairINS_12basic_stringIcNS_11char_traitsIcEENS_9allocatorIcEEEES7_EEEENS_9enable_ifIXaasr21is_move_constructibleIT_EE5valuesr18is_move_assignableISC_EE5valueEvE4typeERSC_SF_, symObjAddr: 0x778C, symBinAddr: 0x10000CBD8, symSize: 0x3C }
  - { offsetInCU: 0x1ED00, offset: 0x1ED00, size: 0x8, addend: 0x0, symName: __ZNSt3__14moveB8ue170006IPPNS_4pairINS_12basic_stringIcNS_11char_traitsIcEENS_9allocatorIcEEEES7_EESA_EET0_T_SC_SB_, symObjAddr: 0x7870, symBinAddr: 0x10000CCBC, symSize: 0x40 }
  - { offsetInCU: 0x1ED5A, offset: 0x1ED5A, size: 0x8, addend: 0x0, symName: __ZNSt3__16__moveB8ue170006INS_17_ClassicAlgPolicyEPPNS_4pairINS_12basic_stringIcNS_11char_traitsIcEENS_9allocatorIcEEEES8_EESB_SB_EENS2_IT0_T2_EESC_T1_SD_, symObjAddr: 0x7978, symBinAddr: 0x10000CDC4, symSize: 0x44 }
  - { offsetInCU: 0x1EDC6, offset: 0x1EDC6, size: 0x8, addend: 0x0, symName: __ZNSt3__123__dispatch_copy_or_moveB8ue170006INS_17_ClassicAlgPolicyENS_11__move_loopIS1_EENS_14__move_trivialEPPNS_4pairINS_12basic_stringIcNS_11char_traitsIcEENS_9allocatorIcEEEESB_EESE_SE_EENS5_IT2_T4_EESF_T3_SG_, symObjAddr: 0x79BC, symBinAddr: 0x10000CE08, symSize: 0x44 }
  - { offsetInCU: 0x1EE44, offset: 0x1EE44, size: 0x8, addend: 0x0, symName: __ZNSt3__121__unwrap_and_dispatchB8ue170006INS_10__overloadINS_11__move_loopINS_17_ClassicAlgPolicyEEENS_14__move_trivialEEEPPNS_4pairINS_12basic_stringIcNS_11char_traitsIcEENS_9allocatorIcEEEESD_EESG_SG_Li0EEENS7_IT0_T2_EESH_T1_SI_, symObjAddr: 0x7A00, symBinAddr: 0x10000CE4C, symSize: 0xB4 }
  - { offsetInCU: 0x1EED2, offset: 0x1EED2, size: 0x8, addend: 0x0, symName: __ZNSt3__114__unwrap_rangeB8ue170006IPPNS_4pairINS_12basic_stringIcNS_11char_traitsIcEENS_9allocatorIcEEEES7_EESA_EENS1_IT0_SB_EET_SD_, symObjAddr: 0x7AB4, symBinAddr: 0x10000CF00, symSize: 0x60 }
  - { offsetInCU: 0x1F096, offset: 0x1F096, size: 0x8, addend: 0x0, symName: __ZNSt3__113__unwrap_iterB8ue170006IPPNS_4pairINS_12basic_stringIcNS_11char_traitsIcEENS_9allocatorIcEEEES7_EENS_18__unwrap_iter_implISA_Lb1EEELi0EEEDTclsrT0_8__unwrapclsr3stdE7declvalIT_EEEESE_, symObjAddr: 0x7B5C, symBinAddr: 0x10000CFA8, symSize: 0x24 }
  - { offsetInCU: 0x1F0DA, offset: 0x1F0DA, size: 0x8, addend: 0x0, symName: __ZNSt3__19make_pairB8ue170006IPPNS_4pairINS_12basic_stringIcNS_11char_traitsIcEENS_9allocatorIcEEEES7_EESA_EENS1_INS_18__unwrap_ref_decayIT_E4typeENSB_IT0_E4typeEEEOSC_OSF_, symObjAddr: 0x7B80, symBinAddr: 0x10000CFCC, symSize: 0x38 }
  - { offsetInCU: 0x1F129, offset: 0x1F129, size: 0x8, addend: 0x0, symName: __ZNSt3__114__rewrap_rangeB8ue170006IPPNS_4pairINS_12basic_stringIcNS_11char_traitsIcEENS_9allocatorIcEEEES7_EESA_EET_SB_T0_, symObjAddr: 0x7BB8, symBinAddr: 0x10000D004, symSize: 0x2C }
  - { offsetInCU: 0x1F175, offset: 0x1F175, size: 0x8, addend: 0x0, symName: __ZNSt3__113__rewrap_iterB8ue170006IPPNS_4pairINS_12basic_stringIcNS_11char_traitsIcEENS_9allocatorIcEEEES7_EESA_NS_18__unwrap_iter_implISA_Lb1EEEEET_SD_T0_, symObjAddr: 0x7BE4, symBinAddr: 0x10000D030, symSize: 0x3C }
  - { offsetInCU: 0x1F1CA, offset: 0x1F1CA, size: 0x8, addend: 0x0, symName: __ZNSt3__119__copy_trivial_implB8ue170006IPNS_4pairINS_12basic_stringIcNS_11char_traitsIcEENS_9allocatorIcEEEES7_EES9_EENS1_IPT_PT0_EESB_SB_SD_, symObjAddr: 0x7C20, symBinAddr: 0x10000D06C, symSize: 0x80 }
  - { offsetInCU: 0x1F232, offset: 0x1F232, size: 0x8, addend: 0x0, symName: __ZNSt3__119__constexpr_memmoveB8ue170006IPNS_4pairINS_12basic_stringIcNS_11char_traitsIcEENS_9allocatorIcEEEES7_EES9_Li0EEEPT_SB_PT0_NS_15__element_countE, symObjAddr: 0x7CA0, symBinAddr: 0x10000D0EC, symSize: 0x64 }
  - { offsetInCU: 0x1F2A0, offset: 0x1F2A0, size: 0x8, addend: 0x0, symName: __ZNSt3__19make_pairB8ue170006IRPPNS_4pairINS_12basic_stringIcNS_11char_traitsIcEENS_9allocatorIcEEEES7_EESA_EENS1_INS_18__unwrap_ref_decayIT_E4typeENSC_IT0_E4typeEEEOSD_OSG_, symObjAddr: 0x7D04, symBinAddr: 0x10000D150, symSize: 0x38 }
  - { offsetInCU: 0x1F342, offset: 0x1F342, size: 0x8, addend: 0x0, symName: __ZNSt3__18distanceB8ue170006INS_13move_iteratorIPPNS_4pairINS_12basic_stringIcNS_11char_traitsIcEENS_9allocatorIcEEEES8_EEEEEENS_15iterator_traitsIT_E15difference_typeESE_SE_, symObjAddr: 0x7F6C, symBinAddr: 0x10000D3B8, symSize: 0x3C }
  - { offsetInCU: 0x1F385, offset: 0x1F385, size: 0x8, addend: 0x0, symName: __ZNSt3__110__distanceB8ue170006INS_13move_iteratorIPPNS_4pairINS_12basic_stringIcNS_11char_traitsIcEENS_9allocatorIcEEEES8_EEEEEENS_15iterator_traitsIT_E15difference_typeESE_SE_NS_26random_access_iterator_tagE, symObjAddr: 0x8170, symBinAddr: 0x10000D5BC, symSize: 0x30 }
  - { offsetInCU: 0x1F3D2, offset: 0x1F3D2, size: 0x8, addend: 0x0, symName: __ZNSt3__1miB8ue170006IPPNS_4pairINS_12basic_stringIcNS_11char_traitsIcEENS_9allocatorIcEEEES7_EESA_EEDTmicldtfp_4baseEcldtfp0_4baseEERKNS_13move_iteratorIT_EERKNSC_IT0_EE, symObjAddr: 0x81A0, symBinAddr: 0x10000D5EC, symSize: 0x48 }
  - { offsetInCU: 0x1F421, offset: 0x1F421, size: 0x8, addend: 0x0, symName: __ZNSt3__113move_backwardB8ue170006IPPNS_4pairINS_12basic_stringIcNS_11char_traitsIcEENS_9allocatorIcEEEES7_EESA_EET0_T_SC_SB_, symObjAddr: 0x82E0, symBinAddr: 0x10000D72C, symSize: 0x40 }
  - { offsetInCU: 0x1F47B, offset: 0x1F47B, size: 0x8, addend: 0x0, symName: __ZNSt3__115__move_backwardB8ue170006INS_17_ClassicAlgPolicyEPPNS_4pairINS_12basic_stringIcNS_11char_traitsIcEENS_9allocatorIcEEEES8_EESB_SB_EENS2_IT0_T2_EESC_T1_SD_, symObjAddr: 0x8320, symBinAddr: 0x10000D76C, symSize: 0x44 }
  - { offsetInCU: 0x1F4E7, offset: 0x1F4E7, size: 0x8, addend: 0x0, symName: __ZNSt3__123__dispatch_copy_or_moveB8ue170006INS_17_ClassicAlgPolicyENS_20__move_backward_loopIS1_EENS_23__move_backward_trivialEPPNS_4pairINS_12basic_stringIcNS_11char_traitsIcEENS_9allocatorIcEEEESB_EESE_SE_EENS5_IT2_T4_EESF_T3_SG_, symObjAddr: 0x8364, symBinAddr: 0x10000D7B0, symSize: 0x44 }
  - { offsetInCU: 0x1F565, offset: 0x1F565, size: 0x8, addend: 0x0, symName: __ZNSt3__121__unwrap_and_dispatchB8ue170006INS_10__overloadINS_20__move_backward_loopINS_17_ClassicAlgPolicyEEENS_23__move_backward_trivialEEEPPNS_4pairINS_12basic_stringIcNS_11char_traitsIcEENS_9allocatorIcEEEESD_EESG_SG_Li0EEENS7_IT0_T2_EESH_T1_SI_, symObjAddr: 0x83A8, symBinAddr: 0x10000D7F4, symSize: 0xB4 }
  - { offsetInCU: 0x1F639, offset: 0x1F639, size: 0x8, addend: 0x0, symName: __ZNSt3__128__copy_backward_trivial_implB8ue170006IPNS_4pairINS_12basic_stringIcNS_11char_traitsIcEENS_9allocatorIcEEEES7_EES9_EENS1_IPT_PT0_EESB_SB_SD_, symObjAddr: 0x84A4, symBinAddr: 0x10000D8F0, symSize: 0x90 }
  - { offsetInCU: 0x1F6A1, offset: 0x1F6A1, size: 0x8, addend: 0x0, symName: __ZNSt3__19make_pairB8ue170006IRPPNS_4pairINS_12basic_stringIcNS_11char_traitsIcEENS_9allocatorIcEEEES7_EESB_EENS1_INS_18__unwrap_ref_decayIT_E4typeENSC_IT0_E4typeEEEOSD_OSG_, symObjAddr: 0x8534, symBinAddr: 0x10000D980, symSize: 0x38 }
  - { offsetInCU: 0x1F6F0, offset: 0x1F6F0, size: 0x8, addend: 0x0, symName: __ZNSt3__13maxB8ue170006ImNS_6__lessIvvEEEERKT_S5_S5_T0_, symObjAddr: 0x85DC, symBinAddr: 0x10000DA28, symSize: 0x54 }
  - { offsetInCU: 0x1F74A, offset: 0x1F74A, size: 0x8, addend: 0x0, symName: __ZNSt3__119__allocate_at_leastB8ue170006INS_9allocatorIPNS_4pairINS_12basic_stringIcNS_11char_traitsIcEENS1_IcEEEES7_EEEEEENS_19__allocation_resultINS_16allocator_traitsIT_E7pointerEEERSD_m, symObjAddr: 0x8774, symBinAddr: 0x10000DBC0, symSize: 0x40 }
  - { offsetInCU: 0x1FB14, offset: 0x1FB14, size: 0x8, addend: 0x0, symName: __ZNSt3__14copyB8ue170006IPKcPcEET0_T_S5_S4_, symObjAddr: 0x9BB8, symBinAddr: 0x10000F004, symSize: 0x40 }
  - { offsetInCU: 0x1FB6E, offset: 0x1FB6E, size: 0x8, addend: 0x0, symName: __ZNSt3__16__copyB8ue170006INS_17_ClassicAlgPolicyEPKcS3_PcEENS_4pairIT0_T2_EES6_T1_S7_, symObjAddr: 0x9BF8, symBinAddr: 0x10000F044, symSize: 0x44 }
  - { offsetInCU: 0x1FBDA, offset: 0x1FBDA, size: 0x8, addend: 0x0, symName: __ZNSt3__123__dispatch_copy_or_moveB8ue170006INS_17_ClassicAlgPolicyENS_11__copy_loopIS1_EENS_14__copy_trivialEPKcS6_PcEENS_4pairIT2_T4_EES9_T3_SA_, symObjAddr: 0x9C3C, symBinAddr: 0x10000F088, symSize: 0x44 }
  - { offsetInCU: 0x1FC58, offset: 0x1FC58, size: 0x8, addend: 0x0, symName: __ZNSt3__121__unwrap_and_dispatchB8ue170006INS_10__overloadINS_11__copy_loopINS_17_ClassicAlgPolicyEEENS_14__copy_trivialEEEPKcS8_PcLi0EEENS_4pairIT0_T2_EESB_T1_SC_, symObjAddr: 0x9C80, symBinAddr: 0x10000F0CC, symSize: 0xB4 }
  - { offsetInCU: 0x1FCE6, offset: 0x1FCE6, size: 0x8, addend: 0x0, symName: __ZNSt3__114__unwrap_rangeB8ue170006IPKcS2_EENS_4pairIT0_S4_EET_S6_, symObjAddr: 0x9D34, symBinAddr: 0x10000F180, symSize: 0x60 }
  - { offsetInCU: 0x1FE7B, offset: 0x1FE7B, size: 0x8, addend: 0x0, symName: __ZNSt3__113__unwrap_iterB8ue170006IPcNS_18__unwrap_iter_implIS1_Lb1EEELi0EEEDTclsrT0_8__unwrapclsr3stdE7declvalIT_EEEES5_, symObjAddr: 0x9DDC, symBinAddr: 0x10000F228, symSize: 0x24 }
  - { offsetInCU: 0x1FEBF, offset: 0x1FEBF, size: 0x8, addend: 0x0, symName: __ZNSt3__19make_pairB8ue170006IPKcPcEENS_4pairINS_18__unwrap_ref_decayIT_E4typeENS5_IT0_E4typeEEEOS6_OS9_, symObjAddr: 0x9E00, symBinAddr: 0x10000F24C, symSize: 0x38 }
  - { offsetInCU: 0x1FF0E, offset: 0x1FF0E, size: 0x8, addend: 0x0, symName: __ZNSt3__114__rewrap_rangeB8ue170006IPKcS2_EET_S3_T0_, symObjAddr: 0x9E38, symBinAddr: 0x10000F284, symSize: 0x2C }
  - { offsetInCU: 0x1FF5A, offset: 0x1FF5A, size: 0x8, addend: 0x0, symName: __ZNSt3__113__rewrap_iterB8ue170006IPcS1_NS_18__unwrap_iter_implIS1_Lb1EEEEET_S4_T0_, symObjAddr: 0x9E64, symBinAddr: 0x10000F2B0, symSize: 0x3C }
  - { offsetInCU: 0x1FFAF, offset: 0x1FFAF, size: 0x8, addend: 0x0, symName: __ZNSt3__19make_pairB8ue170006IPKcS2_EENS_4pairINS_18__unwrap_ref_decayIT_E4typeENS4_IT0_E4typeEEEOS5_OS8_, symObjAddr: 0x9EA0, symBinAddr: 0x10000F2EC, symSize: 0x38 }
  - { offsetInCU: 0x1FFFE, offset: 0x1FFFE, size: 0x8, addend: 0x0, symName: __ZNSt3__113__unwrap_iterB8ue170006IPKcNS_18__unwrap_iter_implIS2_Lb1EEELi0EEEDTclsrT0_8__unwrapclsr3stdE7declvalIT_EEEES6_, symObjAddr: 0x9ED8, symBinAddr: 0x10000F324, symSize: 0x24 }
  - { offsetInCU: 0x20169, offset: 0x20169, size: 0x8, addend: 0x0, symName: __ZNSt3__119__copy_trivial_implB8ue170006IKccEENS_4pairIPT_PT0_EES4_S4_S6_, symObjAddr: 0x9F90, symBinAddr: 0x10000F3DC, symSize: 0x78 }
  - { offsetInCU: 0x201D1, offset: 0x201D1, size: 0x8, addend: 0x0, symName: __ZNSt3__119__constexpr_memmoveB8ue170006IcKcLi0EEEPT_S3_PT0_NS_15__element_countE, symObjAddr: 0xA008, symBinAddr: 0x10000F454, symSize: 0x64 }
  - { offsetInCU: 0x2023F, offset: 0x2023F, size: 0x8, addend: 0x0, symName: __ZNSt3__19make_pairB8ue170006IRPKcPcEENS_4pairINS_18__unwrap_ref_decayIT_E4typeENS6_IT0_E4typeEEEOS7_OSA_, symObjAddr: 0xA06C, symBinAddr: 0x10000F4B8, symSize: 0x38 }
  - { offsetInCU: 0x202E1, offset: 0x202E1, size: 0x8, addend: 0x0, symName: __ZNSt3__113__rewrap_iterB8ue170006IPKcS2_NS_18__unwrap_iter_implIS2_Lb1EEEEET_S5_T0_, symObjAddr: 0xA1A8, symBinAddr: 0x10000F5F4, symSize: 0x3C }
  - { offsetInCU: 0x20336, offset: 0x20336, size: 0x8, addend: 0x0, symName: __ZNSt3__16fill_nB8ue170006IPcmcEET_S2_T0_RKT1_, symObjAddr: 0xA274, symBinAddr: 0x10000F6C0, symSize: 0x44 }
  - { offsetInCU: 0x20399, offset: 0x20399, size: 0x8, addend: 0x0, symName: __ZNSt3__18__fill_nB8ue170006IPcmcEET_S2_T0_RKT1_, symObjAddr: 0xA2B8, symBinAddr: 0x10000F704, symSize: 0x64 }
  - { offsetInCU: 0x203FC, offset: 0x203FC, size: 0x8, addend: 0x0, symName: __ZNSt3__121__convert_to_integralB8ue170006Em, symObjAddr: 0xA31C, symBinAddr: 0x10000F768, symSize: 0x14 }
  - { offsetInCU: 0x20825, offset: 0x20825, size: 0x8, addend: 0x0, symName: __ZNSt3__122__libcpp_thread_createB8ue170006EPP17_opaque_pthread_tPFPvS3_ES3_, symObjAddr: 0xA598, symBinAddr: 0x10000F9E4, symSize: 0x38 }
  - { offsetInCU: 0x20871, offset: 0x20871, size: 0x8, addend: 0x0, symName: __ZNSt3__114__thread_proxyB8ue170006INS_5tupleIJNS_10unique_ptrINS_15__thread_structENS_14default_deleteIS3_EEEEPFvRKNS_12basic_stringIcNS_11char_traitsIcEENS_9allocatorIcEEEEESC_EEEEEPvSI_, symObjAddr: 0xA5D0, symBinAddr: 0x10000FA1C, symSize: 0x90 }
  - { offsetInCU: 0x209D4, offset: 0x209D4, size: 0x8, addend: 0x0, symName: __ZNSt3__13getB8ue170006ILm0EJNS_10unique_ptrINS_15__thread_structENS_14default_deleteIS2_EEEEPFvRKNS_12basic_stringIcNS_11char_traitsIcEENS_9allocatorIcEEEEESB_EEERNS_13tuple_elementIXT_ENS_5tupleIJDpT0_EEEE4typeERSK_, symObjAddr: 0xAD2C, symBinAddr: 0x100010178, symSize: 0x24 }
  - { offsetInCU: 0x20A22, offset: 0x20A22, size: 0x8, addend: 0x0, symName: __ZNSt3__116__thread_executeB8ue170006INS_10unique_ptrINS_15__thread_structENS_14default_deleteIS2_EEEEPFvRKNS_12basic_stringIcNS_11char_traitsIcEENS_9allocatorIcEEEEEJSB_EJLm2EEEEvRNS_5tupleIJT_T0_DpT1_EEENS_15__tuple_indicesIJXspT2_EEEE, symObjAddr: 0xAD50, symBinAddr: 0x10001019C, symSize: 0x3C }
  - { offsetInCU: 0x20A7D, offset: 0x20A7D, size: 0x8, addend: 0x0, symName: __ZNSt3__116__libcpp_tls_setB8ue170006EmPv, symObjAddr: 0xAD8C, symBinAddr: 0x1000101D8, symSize: 0x2C }
  - { offsetInCU: 0x20ABA, offset: 0x20ABA, size: 0x8, addend: 0x0, symName: __ZNSt3__18__invokeB8ue170006IPFvRKNS_12basic_stringIcNS_11char_traitsIcEENS_9allocatorIcEEEEEJS6_EEEDTclclsr3stdE7declvalIT_EEspclsr3stdE7declvalIT0_EEEEOSB_DpOSC_, symObjAddr: 0xADCC, symBinAddr: 0x100010218, symSize: 0x30 }
  - { offsetInCU: 0x20B07, offset: 0x20B07, size: 0x8, addend: 0x0, symName: __ZNSt3__13getB8ue170006ILm1EJNS_10unique_ptrINS_15__thread_structENS_14default_deleteIS2_EEEEPFvRKNS_12basic_stringIcNS_11char_traitsIcEENS_9allocatorIcEEEEESB_EEERNS_13tuple_elementIXT_ENS_5tupleIJDpT0_EEEE4typeERSK_, symObjAddr: 0xADFC, symBinAddr: 0x100010248, symSize: 0x28 }
  - { offsetInCU: 0x20B54, offset: 0x20B54, size: 0x8, addend: 0x0, symName: __ZNSt3__13getB8ue170006ILm2EJNS_10unique_ptrINS_15__thread_structENS_14default_deleteIS2_EEEEPFvRKNS_12basic_stringIcNS_11char_traitsIcEENS_9allocatorIcEEEEESB_EEERNS_13tuple_elementIXT_ENS_5tupleIJDpT0_EEEE4typeERSK_, symObjAddr: 0xAE24, symBinAddr: 0x100010270, symSize: 0x28 }
  - { offsetInCU: 0x20BA1, offset: 0x20BA1, size: 0x8, addend: 0x0, symName: __ZNSt3__112__to_addressB8ue170006INS_6threadEEEPT_S3_, symObjAddr: 0xB698, symBinAddr: 0x100010AE4, symSize: 0x14 }
  - { offsetInCU: 0x20FD3, offset: 0x20FD3, size: 0x8, addend: 0x0, symName: __ZNSt3__114__thread_proxyB8ue170006INS_5tupleIJNS_10unique_ptrINS_15__thread_structENS_14default_deleteIS3_EEEEPFvvEEEEEEPvSA_, symObjAddr: 0xBCFC, symBinAddr: 0x100011148, symSize: 0x90 }
  - { offsetInCU: 0x21030, offset: 0x21030, size: 0x8, addend: 0x0, symName: __ZNSt3__13getB8ue170006ILm0EJNS_10unique_ptrINS_15__thread_structENS_14default_deleteIS2_EEEEPFvvEEEERNS_13tuple_elementIXT_ENS_5tupleIJDpT0_EEEE4typeERSC_, symObjAddr: 0xBFFC, symBinAddr: 0x100011448, symSize: 0x24 }
  - { offsetInCU: 0x21079, offset: 0x21079, size: 0x8, addend: 0x0, symName: __ZNSt3__116__thread_executeB8ue170006INS_10unique_ptrINS_15__thread_structENS_14default_deleteIS2_EEEEPFvvEJEJEEEvRNS_5tupleIJT_T0_DpT1_EEENS_15__tuple_indicesIJXspT2_EEEE, symObjAddr: 0xC020, symBinAddr: 0x10001146C, symSize: 0x28 }
  - { offsetInCU: 0x210C7, offset: 0x210C7, size: 0x8, addend: 0x0, symName: __ZNSt3__18__invokeB8ue170006IPFvvEJEEEDTclclsr3stdE7declvalIT_EEspclsr3stdE7declvalIT0_EEEEOS3_DpOS4_, symObjAddr: 0xC048, symBinAddr: 0x100011494, symSize: 0x28 }
  - { offsetInCU: 0x210FF, offset: 0x210FF, size: 0x8, addend: 0x0, symName: __ZNSt3__13getB8ue170006ILm1EJNS_10unique_ptrINS_15__thread_structENS_14default_deleteIS2_EEEEPFvvEEEERNS_13tuple_elementIXT_ENS_5tupleIJDpT0_EEEE4typeERSC_, symObjAddr: 0xC070, symBinAddr: 0x1000114BC, symSize: 0x28 }
  - { offsetInCU: 0x21147, offset: 0x21147, size: 0x8, addend: 0x0, symName: __ZNSt3__13minB8ue170006ImEERKT_S3_S3_, symObjAddr: 0xC5C8, symBinAddr: 0x100011A14, symSize: 0x2C }
  - { offsetInCU: 0x21374, offset: 0x21374, size: 0x8, addend: 0x0, symName: __ZNSt3__13minB8ue170006ImNS_6__lessIvvEEEERKT_S5_S5_T0_, symObjAddr: 0xC654, symBinAddr: 0x100011AA0, symSize: 0x54 }
  - { offsetInCU: 0x213CE, offset: 0x213CE, size: 0x8, addend: 0x0, symName: __ZNSt3__119__allocate_at_leastB8ue170006INS_9allocatorINS_6threadEEEEENS_19__allocation_resultINS_16allocator_traitsIT_E7pointerEEERS6_m, symObjAddr: 0xC80C, symBinAddr: 0x100011C58, symSize: 0x40 }
  - { offsetInCU: 0x21411, offset: 0x21411, size: 0x8, addend: 0x0, symName: __ZNSt3__142__uninitialized_allocator_move_if_noexceptB8ue170006INS_9allocatorINS_6threadEEENS_16reverse_iteratorIPS2_EES6_S6_EET2_RT_T0_T1_S7_, symObjAddr: 0xC9C0, symBinAddr: 0x100011E0C, symSize: 0x12C }
  - { offsetInCU: 0x214B1, offset: 0x214B1, size: 0x8, addend: 0x0, symName: __ZNSt3__14swapB8ue170006IPNS_6threadEEENS_9enable_ifIXaasr21is_move_constructibleIT_EE5valuesr18is_move_assignableIS4_EE5valueEvE4typeERS4_S7_, symObjAddr: 0xCB38, symBinAddr: 0x100011F84, symSize: 0x3C }
  - { offsetInCU: 0x21502, offset: 0x21502, size: 0x8, addend: 0x0, symName: __ZNSt3__122__make_exception_guardB8ue170006INS_29_AllocatorDestroyRangeReverseINS_9allocatorINS_6threadEEENS_16reverse_iteratorIPS3_EEEEEENS_28__exception_guard_exceptionsIT_EESA_, symObjAddr: 0xCC20, symBinAddr: 0x10001206C, symSize: 0x4C }
  - { offsetInCU: 0x21538, offset: 0x21538, size: 0x8, addend: 0x0, symName: __ZNSt3__1neB8ue170006IPNS_6threadES2_EEbRKNS_16reverse_iteratorIT_EERKNS3_IT0_EE, symObjAddr: 0xCCB0, symBinAddr: 0x1000120FC, symSize: 0x48 }
  - { offsetInCU: 0x21584, offset: 0x21584, size: 0x8, addend: 0x0, symName: __ZNSt3__112__to_addressB8ue170006INS_16reverse_iteratorIPNS_6threadEEEvEEu7__decayIDTclsr19__to_address_helperIT_EE6__callclsr3stdE7declvalIRKS5_EEEEES7_, symObjAddr: 0xCD2C, symBinAddr: 0x100012178, symSize: 0x24 }
  - { offsetInCU: 0x215E3, offset: 0x215E3, size: 0x8, addend: 0x0, symName: __ZNSt3__119__allocator_destroyB8ue170006INS_9allocatorINS_6threadEEENS_16reverse_iteratorINS4_IPS2_EEEES7_EEvRT_T0_T1_, symObjAddr: 0xD06C, symBinAddr: 0x1000124B8, symSize: 0x70 }
  - { offsetInCU: 0x21648, offset: 0x21648, size: 0x8, addend: 0x0, symName: __ZNSt3__1neB8ue170006INS_16reverse_iteratorIPNS_6threadEEES4_EEbRKNS1_IT_EERKNS1_IT0_EE, symObjAddr: 0xD118, symBinAddr: 0x100012564, symSize: 0x60 }
  - { offsetInCU: 0x21694, offset: 0x21694, size: 0x8, addend: 0x0, symName: __ZNSt3__112__to_addressB8ue170006INS_16reverse_iteratorINS1_IPNS_6threadEEEEEvEEu7__decayIDTclsr19__to_address_helperIT_EE6__callclsr3stdE7declvalIRKS6_EEEEES8_, symObjAddr: 0xD178, symBinAddr: 0x1000125C4, symSize: 0x24 }
  - { offsetInCU: 0x22089, offset: 0x22089, size: 0x8, addend: 0x0, symName: __ZSt28__throw_bad_array_new_lengthB8ue170006v, symObjAddr: 0x6290, symBinAddr: 0x10000B6DC, symSize: 0x34 }
  - { offsetInCU: 0x222CA, offset: 0x222CA, size: 0x8, addend: 0x0, symName: __ZL10OUTPUT_DIR, symObjAddr: 0xCE698, symBinAddr: 0x100018018, symSize: 0x0 }
  - { offsetInCU: 0x222E4, offset: 0x222E4, size: 0x8, addend: 0x0, symName: _task_queue, symObjAddr: 0xCE6B0, symBinAddr: 0x100018030, symSize: 0x0 }
  - { offsetInCU: 0x227EC, offset: 0x227EC, size: 0x8, addend: 0x0, symName: _result_queue, symObjAddr: 0xCE750, symBinAddr: 0x1000180D0, symSize: 0x0 }
  - { offsetInCU: 0x29DFD, offset: 0x29DFD, size: 0x8, addend: 0x0, symName: __ZNSt3__16vectorINS_6threadENS_9allocatorIS1_EEE26__swap_out_circular_bufferERNS_14__split_bufferIS1_RS3_EE, symObjAddr: 0xC410, symBinAddr: 0x10001185C, symSize: 0x110 }
  - { offsetInCU: 0x2C9F7, offset: 0x2C9F7, size: 0x8, addend: 0x0, symName: __ZNSt3__112basic_stringIcNS_11char_traitsIcEENS_9allocatorIcEEEC1B8ue170006ILi0EEEPKc, symObjAddr: 0x0, symBinAddr: 0x10000544C, symSize: 0x34 }
  - { offsetInCU: 0x2CA36, offset: 0x2CA36, size: 0x8, addend: 0x0, symName: __ZN13BlockingQueueINSt3__14pairINS0_12basic_stringIcNS0_11char_traitsIcEENS0_9allocatorIcEEEES7_EEEC1Ev, symObjAddr: 0x34, symBinAddr: 0x100005480, symSize: 0x2C }
  - { offsetInCU: 0x2CA62, offset: 0x2CA62, size: 0x8, addend: 0x0, symName: __ZN13BlockingQueueINSt3__14pairINS0_12basic_stringIcNS0_11char_traitsIcEENS0_9allocatorIcEEEES7_EEED1Ev, symObjAddr: 0x60, symBinAddr: 0x1000054AC, symSize: 0x2C }
  - { offsetInCU: 0x2CA8E, offset: 0x2CA8E, size: 0x8, addend: 0x0, symName: __Z8producerRKNSt3__112basic_stringIcNS_11char_traitsIcEENS_9allocatorIcEEEE, symObjAddr: 0x8C, symBinAddr: 0x1000054D8, symSize: 0x32C }
  - { offsetInCU: 0x2CB44, offset: 0x2CB44, size: 0x8, addend: 0x0, symName: __ZNSt3__14__fs10filesystem4pathC1B8ue170006INS_12basic_stringIcNS_11char_traitsIcEENS_9allocatorIcEEEEvEERKT_NS2_6formatE, symObjAddr: 0x3B8, symBinAddr: 0x100005804, symSize: 0x3C }
  - { offsetInCU: 0x2CB93, offset: 0x2CB93, size: 0x8, addend: 0x0, symName: __ZNSt3__14__fs10filesystem18directory_iteratorC1B8ue170006ERKNS1_4pathE, symObjAddr: 0x3F4, symBinAddr: 0x100005840, symSize: 0x3C }
  - { offsetInCU: 0x2CBCB, offset: 0x2CBCB, size: 0x8, addend: 0x0, symName: __ZNSt3__14__fs10filesystem4pathD1B8ue170006Ev, symObjAddr: 0x430, symBinAddr: 0x10000587C, symSize: 0x2C }
  - { offsetInCU: 0x2CBF5, offset: 0x2CBF5, size: 0x8, addend: 0x0, symName: __ZNSt3__14__fs10filesystem18directory_iteratorC1B8ue170006ERKS2_, symObjAddr: 0x494, symBinAddr: 0x1000058E0, symSize: 0x34 }
  - { offsetInCU: 0x2CC29, offset: 0x2CC29, size: 0x8, addend: 0x0, symName: __ZNSt3__14__fs10filesystem18directory_iteratorD1B8ue170006Ev, symObjAddr: 0x4C8, symBinAddr: 0x100005914, symSize: 0x2C }
  - { offsetInCU: 0x2CC53, offset: 0x2CC53, size: 0x8, addend: 0x0, symName: __ZNKSt3__14__fs10filesystem18directory_iteratordeB8ue170006Ev, symObjAddr: 0x55C, symBinAddr: 0x1000059A8, symSize: 0x24 }
  - { offsetInCU: 0x2CC79, offset: 0x2CC79, size: 0x8, addend: 0x0, symName: __ZNKSt3__14__fs10filesystem15directory_entry15is_regular_fileB8ue170006Ev, symObjAddr: 0x580, symBinAddr: 0x1000059CC, symSize: 0x38 }
  - { offsetInCU: 0x2CC9F, offset: 0x2CC9F, size: 0x8, addend: 0x0, symName: __ZNKSt3__14__fs10filesystem15directory_entry4pathB8ue170006Ev, symObjAddr: 0x5B8, symBinAddr: 0x100005A04, symSize: 0x14 }
  - { offsetInCU: 0x2CCC5, offset: 0x2CCC5, size: 0x8, addend: 0x0, symName: __ZNKSt3__14__fs10filesystem4path6stringB8ue170006Ev, symObjAddr: 0x5CC, symBinAddr: 0x100005A18, symSize: 0x38 }
  - { offsetInCU: 0x2CCEB, offset: 0x2CCEB, size: 0x8, addend: 0x0, symName: __ZNKSt3__14__fs10filesystem4path8filenameB8ue170006Ev, symObjAddr: 0x604, symBinAddr: 0x100005A50, symSize: 0x60 }
  - { offsetInCU: 0x2CD11, offset: 0x2CD11, size: 0x8, addend: 0x0, symName: __ZNSt3__113basic_ostreamIcNS_11char_traitsIcEEElsB8ue170006EPFRS3_S4_E, symObjAddr: 0x6F8, symBinAddr: 0x100005B44, symSize: 0x2C }
  - { offsetInCU: 0x2CD45, offset: 0x2CD45, size: 0x8, addend: 0x0, symName: __ZN13BlockingQueueINSt3__14pairINS0_12basic_stringIcNS0_11char_traitsIcEENS0_9allocatorIcEEEES7_EEE4pushERKS8_, symObjAddr: 0x77C, symBinAddr: 0x100005BC8, symSize: 0x78 }
  - { offsetInCU: 0x2CD8D, offset: 0x2CD8D, size: 0x8, addend: 0x0, symName: __ZNSt3__14pairINS_12basic_stringIcNS_11char_traitsIcEENS_9allocatorIcEEEES6_EC1B8ue170006IRS6_S9_LPv0EEEOT_OT0_, symObjAddr: 0x7F4, symBinAddr: 0x100005C40, symSize: 0x3C }
  - { offsetInCU: 0x2CDEB, offset: 0x2CDEB, size: 0x8, addend: 0x0, symName: __ZNSt3__14pairINS_12basic_stringIcNS_11char_traitsIcEENS_9allocatorIcEEEES6_ED1Ev, symObjAddr: 0x830, symBinAddr: 0x100005C7C, symSize: 0x2C }
  - { offsetInCU: 0x2CE17, offset: 0x2CE17, size: 0x8, addend: 0x0, symName: __ZNSt3__14__fs10filesystem18directory_iteratorppB8ue170006Ev, symObjAddr: 0x85C, symBinAddr: 0x100005CA8, symSize: 0x28 }
  - { offsetInCU: 0x2CE56, offset: 0x2CE56, size: 0x8, addend: 0x0, symName: __ZNSt3__14pairINS_12basic_stringIcNS_11char_traitsIcEENS_9allocatorIcEEEES6_EC1B8ue170006IRA1_KcSB_LPv0EEEOT_OT0_, symObjAddr: 0x884, symBinAddr: 0x100005CD0, symSize: 0x3C }
  - { offsetInCU: 0x2CEB4, offset: 0x2CEB4, size: 0x8, addend: 0x0, symName: __Z8consumerv, symObjAddr: 0x8C0, symBinAddr: 0x100005D0C, symSize: 0x41C }
  - { offsetInCU: 0x2CF10, offset: 0x2CF10, size: 0x8, addend: 0x0, symName: __ZNSt3__14pairINS_12basic_stringIcNS_11char_traitsIcEENS_9allocatorIcEEEES6_EC1B8ue170006ILb1ELPv0EEEv, symObjAddr: 0xCDC, symBinAddr: 0x100006128, symSize: 0x2C }
  - { offsetInCU: 0x2CF4A, offset: 0x2CF4A, size: 0x8, addend: 0x0, symName: __ZN13BlockingQueueINSt3__14pairINS0_12basic_stringIcNS0_11char_traitsIcEENS0_9allocatorIcEEEES7_EEE3popERS8_, symObjAddr: 0xD08, symBinAddr: 0x100006154, symSize: 0x104 }
  - { offsetInCU: 0x2CFB2, offset: 0x2CFB2, size: 0x8, addend: 0x0, symName: __ZNKSt3__112basic_stringIcNS_11char_traitsIcEENS_9allocatorIcEEE5emptyB8ue170006Ev, symObjAddr: 0xE0C, symBinAddr: 0x100006258, symSize: 0x30 }
  - { offsetInCU: 0x2CFD8, offset: 0x2CFD8, size: 0x8, addend: 0x0, symName: __ZN2cv11_InputArrayC1ERKNS_3MatE, symObjAddr: 0xF70, symBinAddr: 0x1000063BC, symSize: 0x34 }
  - { offsetInCU: 0x2D012, offset: 0x2D012, size: 0x8, addend: 0x0, symName: __ZN2cv12_OutputArrayC1ERNS_3MatE, symObjAddr: 0xFA4, symBinAddr: 0x1000063F0, symSize: 0x34 }
  - { offsetInCU: 0x2D04C, offset: 0x2D04C, size: 0x8, addend: 0x0, symName: __ZN2cv12_OutputArrayD1Ev, symObjAddr: 0xFD8, symBinAddr: 0x100006424, symSize: 0x2C }
  - { offsetInCU: 0x2D079, offset: 0x2D079, size: 0x8, addend: 0x0, symName: __ZN2cv11_InputArrayD1Ev, symObjAddr: 0x1004, symBinAddr: 0x100006450, symSize: 0x2C }
  - { offsetInCU: 0x2D0A5, offset: 0x2D0A5, size: 0x8, addend: 0x0, symName: __ZNSt3__16vectorIiNS_9allocatorIiEEEC1B8ue170006Ev, symObjAddr: 0x118C, symBinAddr: 0x1000065D8, symSize: 0x2C }
  - { offsetInCU: 0x2D0CF, offset: 0x2D0CF, size: 0x8, addend: 0x0, symName: __ZNSt3__16vectorIiNS_9allocatorIiEEED1B8ue170006Ev, symObjAddr: 0x11B8, symBinAddr: 0x100006604, symSize: 0x2C }
  - { offsetInCU: 0x2D0F9, offset: 0x2D0F9, size: 0x8, addend: 0x0, symName: __Z12save_resultsv, symObjAddr: 0x11E4, symBinAddr: 0x100006630, symSize: 0x100 }
  - { offsetInCU: 0x2D128, offset: 0x2D128, size: 0x8, addend: 0x0, symName: _main, symObjAddr: 0x12E4, symBinAddr: 0x100006730, symSize: 0x1F8 }
  - { offsetInCU: 0x2D1D5, offset: 0x2D1D5, size: 0x8, addend: 0x0, symName: __ZNSt3__16threadC1IRFvRKNS_12basic_stringIcNS_11char_traitsIcEENS_9allocatorIcEEEEEJS9_EvEEOT_DpOT0_, symObjAddr: 0x1558, symBinAddr: 0x1000069A4, symSize: 0x3C }
  - { offsetInCU: 0x2D230, offset: 0x2D230, size: 0x8, addend: 0x0, symName: __ZNSt3__16vectorINS_6threadENS_9allocatorIS1_EEEC1B8ue170006Ev, symObjAddr: 0x1594, symBinAddr: 0x1000069E0, symSize: 0x2C }
  - { offsetInCU: 0x2D260, offset: 0x2D260, size: 0x8, addend: 0x0, symName: __ZNSt3__16vectorINS_6threadENS_9allocatorIS1_EEE12emplace_backIJRFvvEEEERS1_DpOT_, symObjAddr: 0x15C0, symBinAddr: 0x100006A0C, symSize: 0x74 }
  - { offsetInCU: 0x2D2A2, offset: 0x2D2A2, size: 0x8, addend: 0x0, symName: __ZNSt3__16vectorINS_6threadENS_9allocatorIS1_EEE5beginB8ue170006Ev, symObjAddr: 0x1634, symBinAddr: 0x100006A80, symSize: 0x30 }
  - { offsetInCU: 0x2D2CA, offset: 0x2D2CA, size: 0x8, addend: 0x0, symName: __ZNSt3__16vectorINS_6threadENS_9allocatorIS1_EEE3endB8ue170006Ev, symObjAddr: 0x1664, symBinAddr: 0x100006AB0, symSize: 0x30 }
  - { offsetInCU: 0x2D2F2, offset: 0x2D2F2, size: 0x8, addend: 0x0, symName: __ZNKSt3__111__wrap_iterIPNS_6threadEEdeB8ue170006Ev, symObjAddr: 0x16C8, symBinAddr: 0x100006B14, symSize: 0x18 }
  - { offsetInCU: 0x2D318, offset: 0x2D318, size: 0x8, addend: 0x0, symName: __ZNSt3__111__wrap_iterIPNS_6threadEEppB8ue170006Ev, symObjAddr: 0x16E0, symBinAddr: 0x100006B2C, symSize: 0x20 }
  - { offsetInCU: 0x2D33E, offset: 0x2D33E, size: 0x8, addend: 0x0, symName: __ZNSt3__16vectorINS_6threadENS_9allocatorIS1_EEED1B8ue170006Ev, symObjAddr: 0x1700, symBinAddr: 0x100006B4C, symSize: 0x2C }
  - { offsetInCU: 0x2D368, offset: 0x2D368, size: 0x8, addend: 0x0, symName: __ZN13BlockingQueueINSt3__14pairINS0_12basic_stringIcNS0_11char_traitsIcEENS0_9allocatorIcEEEES7_EEEC2Ev, symObjAddr: 0x172C, symBinAddr: 0x100006B78, symSize: 0x44 }
  - { offsetInCU: 0x2D394, offset: 0x2D394, size: 0x8, addend: 0x0, symName: __ZNSt3__15queueINS_4pairINS_12basic_stringIcNS_11char_traitsIcEENS_9allocatorIcEEEES7_EENS_5dequeIS8_NS5_IS8_EEEEEC1B8ue170006Ev, symObjAddr: 0x1770, symBinAddr: 0x100006BBC, symSize: 0x2C }
  - { offsetInCU: 0x2D3BE, offset: 0x2D3BE, size: 0x8, addend: 0x0, symName: __ZNSt3__15mutexC1B8ue170006Ev, symObjAddr: 0x179C, symBinAddr: 0x100006BE8, symSize: 0x2C }
  - { offsetInCU: 0x2D3E8, offset: 0x2D3E8, size: 0x8, addend: 0x0, symName: __ZNSt3__118condition_variableC1B8ue170006Ev, symObjAddr: 0x17C8, symBinAddr: 0x100006C14, symSize: 0x2C }
  - { offsetInCU: 0x2D412, offset: 0x2D412, size: 0x8, addend: 0x0, symName: __ZNSt3__15queueINS_4pairINS_12basic_stringIcNS_11char_traitsIcEENS_9allocatorIcEEEES7_EENS_5dequeIS8_NS5_IS8_EEEEEC2B8ue170006Ev, symObjAddr: 0x17F4, symBinAddr: 0x100006C40, symSize: 0x2C }
  - { offsetInCU: 0x2D43C, offset: 0x2D43C, size: 0x8, addend: 0x0, symName: __ZNSt3__15dequeINS_4pairINS_12basic_stringIcNS_11char_traitsIcEENS_9allocatorIcEEEES7_EENS5_IS8_EEEC1B8ue170006Ev, symObjAddr: 0x1820, symBinAddr: 0x100006C6C, symSize: 0x2C }
  - { offsetInCU: 0x2D466, offset: 0x2D466, size: 0x8, addend: 0x0, symName: __ZNSt3__15dequeINS_4pairINS_12basic_stringIcNS_11char_traitsIcEENS_9allocatorIcEEEES7_EENS5_IS8_EEEC2B8ue170006Ev, symObjAddr: 0x184C, symBinAddr: 0x100006C98, symSize: 0x5C }
  - { offsetInCU: 0x2D490, offset: 0x2D490, size: 0x8, addend: 0x0, symName: __ZNSt3__114__split_bufferIPNS_4pairINS_12basic_stringIcNS_11char_traitsIcEENS_9allocatorIcEEEES7_EENS5_IS9_EEEC1B8ue170006Ev, symObjAddr: 0x18A8, symBinAddr: 0x100006CF4, symSize: 0x2C }
  - { offsetInCU: 0x2D4C6, offset: 0x2D4C6, size: 0x8, addend: 0x0, symName: __ZNSt3__117__compressed_pairImNS_9allocatorINS_4pairINS_12basic_stringIcNS_11char_traitsIcEENS1_IcEEEES7_EEEEEC1B8ue170006IiNS_18__default_init_tagEEEOT_OT0_, symObjAddr: 0x18D4, symBinAddr: 0x100006D20, symSize: 0x3C }
  - { offsetInCU: 0x2D51E, offset: 0x2D51E, size: 0x8, addend: 0x0, symName: __ZNKSt3__15dequeINS_4pairINS_12basic_stringIcNS_11char_traitsIcEENS_9allocatorIcEEEES7_EENS5_IS8_EEE14__annotate_newB8ue170006Em, symObjAddr: 0x191C, symBinAddr: 0x100006D68, symSize: 0xD0 }
  - { offsetInCU: 0x2D553, offset: 0x2D553, size: 0x8, addend: 0x0, symName: __ZNSt3__114__split_bufferIPNS_4pairINS_12basic_stringIcNS_11char_traitsIcEENS_9allocatorIcEEEES7_EENS5_IS9_EEEC2B8ue170006Ev, symObjAddr: 0x19EC, symBinAddr: 0x100006E38, symSize: 0x50 }
  - { offsetInCU: 0x2D583, offset: 0x2D583, size: 0x8, addend: 0x0, symName: __ZNSt3__117__compressed_pairIPPNS_4pairINS_12basic_stringIcNS_11char_traitsIcEENS_9allocatorIcEEEES7_EENS5_IS9_EEEC1B8ue170006IDnNS_18__default_init_tagEEEOT_OT0_, symObjAddr: 0x1A3C, symBinAddr: 0x100006E88, symSize: 0x3C }
  - { offsetInCU: 0x2D5DB, offset: 0x2D5DB, size: 0x8, addend: 0x0, symName: __ZNSt3__117__compressed_pairIPPNS_4pairINS_12basic_stringIcNS_11char_traitsIcEENS_9allocatorIcEEEES7_EENS5_IS9_EEEC2B8ue170006IDnNS_18__default_init_tagEEEOT_OT0_, symObjAddr: 0x1A78, symBinAddr: 0x100006EC4, symSize: 0x40 }
  - { offsetInCU: 0x2D633, offset: 0x2D633, size: 0x8, addend: 0x0, symName: __ZNSt3__122__compressed_pair_elemIPPNS_4pairINS_12basic_stringIcNS_11char_traitsIcEENS_9allocatorIcEEEES7_EELi0ELb0EEC2B8ue170006IDnvEEOT_, symObjAddr: 0x1AB8, symBinAddr: 0x100006F04, symSize: 0x1C }
  - { offsetInCU: 0x2D675, offset: 0x2D675, size: 0x8, addend: 0x0, symName: __ZNSt3__122__compressed_pair_elemINS_9allocatorIPNS_4pairINS_12basic_stringIcNS_11char_traitsIcEENS1_IcEEEES7_EEEELi1ELb1EEC2B8ue170006ENS_18__default_init_tagE, symObjAddr: 0x1AD4, symBinAddr: 0x100006F20, symSize: 0x2C }
  - { offsetInCU: 0x2D6A9, offset: 0x2D6A9, size: 0x8, addend: 0x0, symName: __ZNSt3__19allocatorIPNS_4pairINS_12basic_stringIcNS_11char_traitsIcEENS0_IcEEEES6_EEEC2B8ue170006Ev, symObjAddr: 0x1B00, symBinAddr: 0x100006F4C, symSize: 0x2C }
  - { offsetInCU: 0x2D6D3, offset: 0x2D6D3, size: 0x8, addend: 0x0, symName: __ZNSt3__116__non_trivial_ifILb1ENS_9allocatorIPNS_4pairINS_12basic_stringIcNS_11char_traitsIcEENS1_IcEEEES7_EEEEEC2B8ue170006Ev, symObjAddr: 0x1B2C, symBinAddr: 0x100006F78, symSize: 0x14 }
  - { offsetInCU: 0x2D6FD, offset: 0x2D6FD, size: 0x8, addend: 0x0, symName: __ZNSt3__117__compressed_pairImNS_9allocatorINS_4pairINS_12basic_stringIcNS_11char_traitsIcEENS1_IcEEEES7_EEEEEC2B8ue170006IiNS_18__default_init_tagEEEOT_OT0_, symObjAddr: 0x1B40, symBinAddr: 0x100006F8C, symSize: 0x40 }
  - { offsetInCU: 0x2D755, offset: 0x2D755, size: 0x8, addend: 0x0, symName: __ZNSt3__122__compressed_pair_elemImLi0ELb0EEC2B8ue170006IivEEOT_, symObjAddr: 0x1B80, symBinAddr: 0x100006FCC, symSize: 0x24 }
  - { offsetInCU: 0x2D797, offset: 0x2D797, size: 0x8, addend: 0x0, symName: __ZNSt3__122__compressed_pair_elemINS_9allocatorINS_4pairINS_12basic_stringIcNS_11char_traitsIcEENS1_IcEEEES7_EEEELi1ELb1EEC2B8ue170006ENS_18__default_init_tagE, symObjAddr: 0x1BA4, symBinAddr: 0x100006FF0, symSize: 0x2C }
  - { offsetInCU: 0x2D7CB, offset: 0x2D7CB, size: 0x8, addend: 0x0, symName: __ZNSt3__19allocatorINS_4pairINS_12basic_stringIcNS_11char_traitsIcEENS0_IcEEEES6_EEEC2B8ue170006Ev, symObjAddr: 0x1BD0, symBinAddr: 0x10000701C, symSize: 0x2C }
  - { offsetInCU: 0x2D7F5, offset: 0x2D7F5, size: 0x8, addend: 0x0, symName: __ZNSt3__116__non_trivial_ifILb1ENS_9allocatorINS_4pairINS_12basic_stringIcNS_11char_traitsIcEENS1_IcEEEES7_EEEEEC2B8ue170006Ev, symObjAddr: 0x1BFC, symBinAddr: 0x100007048, symSize: 0x14 }
  - { offsetInCU: 0x2D81F, offset: 0x2D81F, size: 0x8, addend: 0x0, symName: __ZNKSt3__15dequeINS_4pairINS_12basic_stringIcNS_11char_traitsIcEENS_9allocatorIcEEEES7_EENS5_IS8_EEE18__annotate_from_toB8ue170006EmmNSA_22__asan_annotation_typeENSA_23__asan_annotation_placeE, symObjAddr: 0x1C10, symBinAddr: 0x10000705C, symSize: 0x598 }
  - { offsetInCU: 0x2D9DB, offset: 0x2D9DB, size: 0x8, addend: 0x0, symName: __ZNKSt3__114__split_bufferIPNS_4pairINS_12basic_stringIcNS_11char_traitsIcEENS_9allocatorIcEEEES7_EENS5_IS9_EEE4sizeB8ue170006Ev, symObjAddr: 0x21A8, symBinAddr: 0x1000075F4, symSize: 0x28 }
  - { offsetInCU: 0x2DA01, offset: 0x2DA01, size: 0x8, addend: 0x0, symName: __ZNKSt3__114__split_bufferIPNS_4pairINS_12basic_stringIcNS_11char_traitsIcEENS_9allocatorIcEEEES7_EENS5_IS9_EEE5beginB8ue170006Ev, symObjAddr: 0x21D0, symBinAddr: 0x10000761C, symSize: 0x18 }
  - { offsetInCU: 0x2DA27, offset: 0x2DA27, size: 0x8, addend: 0x0, symName: __ZNKSt3__15dequeINS_4pairINS_12basic_stringIcNS_11char_traitsIcEENS_9allocatorIcEEEES7_EENS5_IS8_EEE4sizeB8ue170006Ev, symObjAddr: 0x21E8, symBinAddr: 0x100007634, symSize: 0x28 }
  - { offsetInCU: 0x2DA4D, offset: 0x2DA4D, size: 0x8, addend: 0x0, symName: __ZNKSt3__15dequeINS_4pairINS_12basic_stringIcNS_11char_traitsIcEENS_9allocatorIcEEEES7_EENS5_IS8_EEE5emptyB8ue170006Ev, symObjAddr: 0x2210, symBinAddr: 0x10000765C, symSize: 0x30 }
  - { offsetInCU: 0x2DA73, offset: 0x2DA73, size: 0x8, addend: 0x0, symName: __ZNKSt3__15dequeINS_4pairINS_12basic_stringIcNS_11char_traitsIcEENS_9allocatorIcEEEES7_EENS5_IS8_EEE44__annotate_double_ended_contiguous_containerB8ue170006EPKvSC_SC_SC_SC_SC_, symObjAddr: 0x2254, symBinAddr: 0x1000076A0, symSize: 0x28 }
  - { offsetInCU: 0x2DAE1, offset: 0x2DAE1, size: 0x8, addend: 0x0, symName: __ZNKSt3__15dequeINS_4pairINS_12basic_stringIcNS_11char_traitsIcEENS_9allocatorIcEEEES7_EENS5_IS8_EEE6__sizeB8ue170006Ev, symObjAddr: 0x227C, symBinAddr: 0x1000076C8, symSize: 0x28 }
  - { offsetInCU: 0x2DB07, offset: 0x2DB07, size: 0x8, addend: 0x0, symName: __ZNKSt3__117__compressed_pairImNS_9allocatorINS_4pairINS_12basic_stringIcNS_11char_traitsIcEENS1_IcEEEES7_EEEEE5firstB8ue170006Ev, symObjAddr: 0x22A4, symBinAddr: 0x1000076F0, symSize: 0x24 }
  - { offsetInCU: 0x2DB2D, offset: 0x2DB2D, size: 0x8, addend: 0x0, symName: __ZNKSt3__122__compressed_pair_elemImLi0ELb0EE5__getB8ue170006Ev, symObjAddr: 0x22C8, symBinAddr: 0x100007714, symSize: 0x14 }
  - { offsetInCU: 0x2DB53, offset: 0x2DB53, size: 0x8, addend: 0x0, symName: __ZNSt3__15mutexC2B8ue170006Ev, symObjAddr: 0x22DC, symBinAddr: 0x100007728, symSize: 0x44 }
  - { offsetInCU: 0x2DB7D, offset: 0x2DB7D, size: 0x8, addend: 0x0, symName: __ZNSt3__118condition_variableC2B8ue170006Ev, symObjAddr: 0x2320, symBinAddr: 0x10000776C, symSize: 0x44 }
  - { offsetInCU: 0x2DBA7, offset: 0x2DBA7, size: 0x8, addend: 0x0, symName: __ZN13BlockingQueueINSt3__14pairINS0_12basic_stringIcNS0_11char_traitsIcEENS0_9allocatorIcEEEES7_EEED2Ev, symObjAddr: 0x2364, symBinAddr: 0x1000077B0, symSize: 0x44 }
  - { offsetInCU: 0x2DBD3, offset: 0x2DBD3, size: 0x8, addend: 0x0, symName: __ZNSt3__15queueINS_4pairINS_12basic_stringIcNS_11char_traitsIcEENS_9allocatorIcEEEES7_EENS_5dequeIS8_NS5_IS8_EEEEED1Ev, symObjAddr: 0x23A8, symBinAddr: 0x1000077F4, symSize: 0x2C }
  - { offsetInCU: 0x2DC00, offset: 0x2DC00, size: 0x8, addend: 0x0, symName: __ZNSt3__15queueINS_4pairINS_12basic_stringIcNS_11char_traitsIcEENS_9allocatorIcEEEES7_EENS_5dequeIS8_NS5_IS8_EEEEED2Ev, symObjAddr: 0x23D4, symBinAddr: 0x100007820, symSize: 0x2C }
  - { offsetInCU: 0x2DC2D, offset: 0x2DC2D, size: 0x8, addend: 0x0, symName: __ZNSt3__15dequeINS_4pairINS_12basic_stringIcNS_11char_traitsIcEENS_9allocatorIcEEEES7_EENS5_IS8_EEED1B8ue170006Ev, symObjAddr: 0x2400, symBinAddr: 0x10000784C, symSize: 0x2C }
  - { offsetInCU: 0x2DC57, offset: 0x2DC57, size: 0x8, addend: 0x0, symName: __ZNSt3__15dequeINS_4pairINS_12basic_stringIcNS_11char_traitsIcEENS_9allocatorIcEEEES7_EENS5_IS8_EEED2B8ue170006Ev, symObjAddr: 0x242C, symBinAddr: 0x100007878, symSize: 0xA4 }
  - { offsetInCU: 0x2DCAD, offset: 0x2DCAD, size: 0x8, addend: 0x0, symName: __ZNSt3__15dequeINS_4pairINS_12basic_stringIcNS_11char_traitsIcEENS_9allocatorIcEEEES7_EENS5_IS8_EEE5clearEv, symObjAddr: 0x24D0, symBinAddr: 0x10000791C, symSize: 0x180 }
  - { offsetInCU: 0x2DD08, offset: 0x2DD08, size: 0x8, addend: 0x0, symName: __ZNKSt3__15dequeINS_4pairINS_12basic_stringIcNS_11char_traitsIcEENS_9allocatorIcEEEES7_EENS5_IS8_EEE17__annotate_deleteB8ue170006Ev, symObjAddr: 0x2650, symBinAddr: 0x100007A9C, symSize: 0xEC }
  - { offsetInCU: 0x2DD4B, offset: 0x2DD4B, size: 0x8, addend: 0x0, symName: __ZNSt3__114__split_bufferIPNS_4pairINS_12basic_stringIcNS_11char_traitsIcEENS_9allocatorIcEEEES7_EENS5_IS9_EEE5beginB8ue170006Ev, symObjAddr: 0x273C, symBinAddr: 0x100007B88, symSize: 0x18 }
  - { offsetInCU: 0x2DD71, offset: 0x2DD71, size: 0x8, addend: 0x0, symName: __ZNSt3__114__split_bufferIPNS_4pairINS_12basic_stringIcNS_11char_traitsIcEENS_9allocatorIcEEEES7_EENS5_IS9_EEE3endB8ue170006Ev, symObjAddr: 0x2754, symBinAddr: 0x100007BA0, symSize: 0x18 }
  - { offsetInCU: 0x2DD97, offset: 0x2DD97, size: 0x8, addend: 0x0, symName: __ZNSt3__116allocator_traitsINS_9allocatorINS_4pairINS_12basic_stringIcNS_11char_traitsIcEENS1_IcEEEES7_EEEEE10deallocateB8ue170006ERS9_PS8_m, symObjAddr: 0x276C, symBinAddr: 0x100007BB8, symSize: 0x34 }
  - { offsetInCU: 0x2DDD9, offset: 0x2DDD9, size: 0x8, addend: 0x0, symName: __ZNSt3__15dequeINS_4pairINS_12basic_stringIcNS_11char_traitsIcEENS_9allocatorIcEEEES7_EENS5_IS8_EEE7__allocB8ue170006Ev, symObjAddr: 0x27A0, symBinAddr: 0x100007BEC, symSize: 0x28 }
  - { offsetInCU: 0x2DDFF, offset: 0x2DDFF, size: 0x8, addend: 0x0, symName: __ZNSt3__114__split_bufferIPNS_4pairINS_12basic_stringIcNS_11char_traitsIcEENS_9allocatorIcEEEES7_EENS5_IS9_EEED1Ev, symObjAddr: 0x27C8, symBinAddr: 0x100007C14, symSize: 0x2C }
  - { offsetInCU: 0x2DE2B, offset: 0x2DE2B, size: 0x8, addend: 0x0, symName: __ZNSt3__15dequeINS_4pairINS_12basic_stringIcNS_11char_traitsIcEENS_9allocatorIcEEEES7_EENS5_IS8_EEE5beginB8ue170006Ev, symObjAddr: 0x27F4, symBinAddr: 0x100007C40, symSize: 0xC0 }
  - { offsetInCU: 0x2DE60, offset: 0x2DE60, size: 0x8, addend: 0x0, symName: __ZNSt3__15dequeINS_4pairINS_12basic_stringIcNS_11char_traitsIcEENS_9allocatorIcEEEES7_EENS5_IS8_EEE3endB8ue170006Ev, symObjAddr: 0x28B4, symBinAddr: 0x100007D00, symSize: 0xC4 }
  - { offsetInCU: 0x2DEA4, offset: 0x2DEA4, size: 0x8, addend: 0x0, symName: __ZNSt3__116allocator_traitsINS_9allocatorINS_4pairINS_12basic_stringIcNS_11char_traitsIcEENS1_IcEEEES7_EEEEE7destroyB8ue170006IS8_vEEvRS9_PT_, symObjAddr: 0x29AC, symBinAddr: 0x100007DF8, symSize: 0x2C }
  - { offsetInCU: 0x2DEE1, offset: 0x2DEE1, size: 0x8, addend: 0x0, symName: __ZNKSt3__116__deque_iteratorINS_4pairINS_12basic_stringIcNS_11char_traitsIcEENS_9allocatorIcEEEES7_EEPS8_RS8_PS9_lLl85EEdeB8ue170006Ev, symObjAddr: 0x29D8, symBinAddr: 0x100007E24, symSize: 0x18 }
  - { offsetInCU: 0x2DF07, offset: 0x2DF07, size: 0x8, addend: 0x0, symName: __ZNSt3__116__deque_iteratorINS_4pairINS_12basic_stringIcNS_11char_traitsIcEENS_9allocatorIcEEEES7_EEPS8_RS8_PS9_lLl85EEppB8ue170006Ev, symObjAddr: 0x29F0, symBinAddr: 0x100007E3C, symSize: 0x70 }
  - { offsetInCU: 0x2DF2D, offset: 0x2DF2D, size: 0x8, addend: 0x0, symName: __ZNSt3__15dequeINS_4pairINS_12basic_stringIcNS_11char_traitsIcEENS_9allocatorIcEEEES7_EENS5_IS8_EEE6__sizeB8ue170006Ev, symObjAddr: 0x2A60, symBinAddr: 0x100007EAC, symSize: 0x28 }
  - { offsetInCU: 0x2DF53, offset: 0x2DF53, size: 0x8, addend: 0x0, symName: __ZNSt3__114__split_bufferIPNS_4pairINS_12basic_stringIcNS_11char_traitsIcEENS_9allocatorIcEEEES7_EENS5_IS9_EEE5frontB8ue170006Ev, symObjAddr: 0x2A88, symBinAddr: 0x100007ED4, symSize: 0x18 }
  - { offsetInCU: 0x2DF79, offset: 0x2DF79, size: 0x8, addend: 0x0, symName: __ZNSt3__114__split_bufferIPNS_4pairINS_12basic_stringIcNS_11char_traitsIcEENS_9allocatorIcEEEES7_EENS5_IS9_EEE9pop_frontB8ue170006Ev, symObjAddr: 0x2AA0, symBinAddr: 0x100007EEC, symSize: 0x2C }
  - { offsetInCU: 0x2DF9F, offset: 0x2DF9F, size: 0x8, addend: 0x0, symName: __ZNKSt3__114__split_bufferIPNS_4pairINS_12basic_stringIcNS_11char_traitsIcEENS_9allocatorIcEEEES7_EENS5_IS9_EEE5emptyB8ue170006Ev, symObjAddr: 0x2ACC, symBinAddr: 0x100007F18, symSize: 0x28 }
  - { offsetInCU: 0x2DFC5, offset: 0x2DFC5, size: 0x8, addend: 0x0, symName: __ZNSt3__116__deque_iteratorINS_4pairINS_12basic_stringIcNS_11char_traitsIcEENS_9allocatorIcEEEES7_EEPS8_RS8_PS9_lLl85EEC1B8ue170006ESB_S9_, symObjAddr: 0x2AF4, symBinAddr: 0x100007F40, symSize: 0x3C }
  - { offsetInCU: 0x2E00D, offset: 0x2E00D, size: 0x8, addend: 0x0, symName: __ZNSt3__116__deque_iteratorINS_4pairINS_12basic_stringIcNS_11char_traitsIcEENS_9allocatorIcEEEES7_EEPS8_RS8_PS9_lLl85EEC2B8ue170006ESB_S9_, symObjAddr: 0x2B30, symBinAddr: 0x100007F7C, symSize: 0x2C }
  - { offsetInCU: 0x2E055, offset: 0x2E055, size: 0x8, addend: 0x0, symName: __ZNSt3__19allocatorINS_4pairINS_12basic_stringIcNS_11char_traitsIcEENS0_IcEEEES6_EEE7destroyB8ue170006EPS7_, symObjAddr: 0x2B8C, symBinAddr: 0x100007FD8, symSize: 0x28 }
  - { offsetInCU: 0x2E089, offset: 0x2E089, size: 0x8, addend: 0x0, symName: __ZNSt3__117__compressed_pairImNS_9allocatorINS_4pairINS_12basic_stringIcNS_11char_traitsIcEENS1_IcEEEES7_EEEEE5firstB8ue170006Ev, symObjAddr: 0x2BB4, symBinAddr: 0x100008000, symSize: 0x24 }
  - { offsetInCU: 0x2E0AF, offset: 0x2E0AF, size: 0x8, addend: 0x0, symName: __ZNSt3__122__compressed_pair_elemImLi0ELb0EE5__getB8ue170006Ev, symObjAddr: 0x2BD8, symBinAddr: 0x100008024, symSize: 0x14 }
  - { offsetInCU: 0x2E0D5, offset: 0x2E0D5, size: 0x8, addend: 0x0, symName: __ZNSt3__114__split_bufferIPNS_4pairINS_12basic_stringIcNS_11char_traitsIcEENS_9allocatorIcEEEES7_EENS5_IS9_EEE19__destruct_at_beginB8ue170006EPS9_, symObjAddr: 0x2BEC, symBinAddr: 0x100008038, symSize: 0x2C }
  - { offsetInCU: 0x2E109, offset: 0x2E109, size: 0x8, addend: 0x0, symName: __ZNSt3__114__split_bufferIPNS_4pairINS_12basic_stringIcNS_11char_traitsIcEENS_9allocatorIcEEEES7_EENS5_IS9_EEE19__destruct_at_beginEPS9_NS_17integral_constantIbLb1EEE, symObjAddr: 0x2C18, symBinAddr: 0x100008064, symSize: 0x20 }
  - { offsetInCU: 0x2E149, offset: 0x2E149, size: 0x8, addend: 0x0, symName: __ZNKSt3__15dequeINS_4pairINS_12basic_stringIcNS_11char_traitsIcEENS_9allocatorIcEEEES7_EENS5_IS8_EEE22__annotate_whole_blockB8ue170006EmNSA_22__asan_annotation_typeE, symObjAddr: 0x2C38, symBinAddr: 0x100008084, symSize: 0xAC }
  - { offsetInCU: 0x2E1BA, offset: 0x2E1BA, size: 0x8, addend: 0x0, symName: __ZNKSt3__15dequeINS_4pairINS_12basic_stringIcNS_11char_traitsIcEENS_9allocatorIcEEEES7_EENS5_IS8_EEE23__annotate_poison_blockB8ue170006EPKvSC_, symObjAddr: 0x2CE4, symBinAddr: 0x100008130, symSize: 0x44 }
  - { offsetInCU: 0x2E1FE, offset: 0x2E1FE, size: 0x8, addend: 0x0, symName: __ZNSt3__19allocatorINS_4pairINS_12basic_stringIcNS_11char_traitsIcEENS0_IcEEEES6_EEE10deallocateB8ue170006EPS7_m, symObjAddr: 0x2D28, symBinAddr: 0x100008174, symSize: 0x44 }
  - { offsetInCU: 0x2E240, offset: 0x2E240, size: 0x8, addend: 0x0, symName: __ZNSt3__117__compressed_pairImNS_9allocatorINS_4pairINS_12basic_stringIcNS_11char_traitsIcEENS1_IcEEEES7_EEEEE6secondB8ue170006Ev, symObjAddr: 0x2E94, symBinAddr: 0x1000082E0, symSize: 0x24 }
  - { offsetInCU: 0x2E266, offset: 0x2E266, size: 0x8, addend: 0x0, symName: __ZNSt3__122__compressed_pair_elemINS_9allocatorINS_4pairINS_12basic_stringIcNS_11char_traitsIcEENS1_IcEEEES7_EEEELi1ELb1EE5__getB8ue170006Ev, symObjAddr: 0x2EB8, symBinAddr: 0x100008304, symSize: 0x14 }
  - { offsetInCU: 0x2E28C, offset: 0x2E28C, size: 0x8, addend: 0x0, symName: __ZNSt3__114__split_bufferIPNS_4pairINS_12basic_stringIcNS_11char_traitsIcEENS_9allocatorIcEEEES7_EENS5_IS9_EEED2Ev, symObjAddr: 0x2ECC, symBinAddr: 0x100008318, symSize: 0x8C }
  - { offsetInCU: 0x2E2B8, offset: 0x2E2B8, size: 0x8, addend: 0x0, symName: __ZNSt3__114__split_bufferIPNS_4pairINS_12basic_stringIcNS_11char_traitsIcEENS_9allocatorIcEEEES7_EENS5_IS9_EEE5clearB8ue170006Ev, symObjAddr: 0x2F58, symBinAddr: 0x1000083A4, symSize: 0x28 }
  - { offsetInCU: 0x2E2DE, offset: 0x2E2DE, size: 0x8, addend: 0x0, symName: __ZNSt3__116allocator_traitsINS_9allocatorIPNS_4pairINS_12basic_stringIcNS_11char_traitsIcEENS1_IcEEEES7_EEEEE10deallocateB8ue170006ERSA_PS9_m, symObjAddr: 0x2F80, symBinAddr: 0x1000083CC, symSize: 0x34 }
  - { offsetInCU: 0x2E320, offset: 0x2E320, size: 0x8, addend: 0x0, symName: __ZNSt3__114__split_bufferIPNS_4pairINS_12basic_stringIcNS_11char_traitsIcEENS_9allocatorIcEEEES7_EENS5_IS9_EEE7__allocB8ue170006Ev, symObjAddr: 0x2FB4, symBinAddr: 0x100008400, symSize: 0x28 }
  - { offsetInCU: 0x2E346, offset: 0x2E346, size: 0x8, addend: 0x0, symName: __ZNKSt3__114__split_bufferIPNS_4pairINS_12basic_stringIcNS_11char_traitsIcEENS_9allocatorIcEEEES7_EENS5_IS9_EEE8capacityB8ue170006Ev, symObjAddr: 0x2FDC, symBinAddr: 0x100008428, symSize: 0x40 }
  - { offsetInCU: 0x2E36C, offset: 0x2E36C, size: 0x8, addend: 0x0, symName: __ZNSt3__114__split_bufferIPNS_4pairINS_12basic_stringIcNS_11char_traitsIcEENS_9allocatorIcEEEES7_EENS5_IS9_EEE17__destruct_at_endB8ue170006EPS9_, symObjAddr: 0x301C, symBinAddr: 0x100008468, symSize: 0x2C }
  - { offsetInCU: 0x2E3A0, offset: 0x2E3A0, size: 0x8, addend: 0x0, symName: __ZNSt3__114__split_bufferIPNS_4pairINS_12basic_stringIcNS_11char_traitsIcEENS_9allocatorIcEEEES7_EENS5_IS9_EEE17__destruct_at_endB8ue170006EPS9_NS_17integral_constantIbLb0EEE, symObjAddr: 0x3048, symBinAddr: 0x100008494, symSize: 0x80 }
  - { offsetInCU: 0x2E3E0, offset: 0x2E3E0, size: 0x8, addend: 0x0, symName: __ZNSt3__116allocator_traitsINS_9allocatorIPNS_4pairINS_12basic_stringIcNS_11char_traitsIcEENS1_IcEEEES7_EEEEE7destroyB8ue170006IS9_vEEvRSA_PT_, symObjAddr: 0x30C8, symBinAddr: 0x100008514, symSize: 0x2C }
  - { offsetInCU: 0x2E41D, offset: 0x2E41D, size: 0x8, addend: 0x0, symName: __ZNSt3__19allocatorIPNS_4pairINS_12basic_stringIcNS_11char_traitsIcEENS0_IcEEEES6_EEE7destroyB8ue170006EPS8_, symObjAddr: 0x3108, symBinAddr: 0x100008554, symSize: 0x14 }
  - { offsetInCU: 0x2E451, offset: 0x2E451, size: 0x8, addend: 0x0, symName: __ZNSt3__19allocatorIPNS_4pairINS_12basic_stringIcNS_11char_traitsIcEENS0_IcEEEES6_EEE10deallocateB8ue170006EPS8_m, symObjAddr: 0x311C, symBinAddr: 0x100008568, symSize: 0x40 }
  - { offsetInCU: 0x2E493, offset: 0x2E493, size: 0x8, addend: 0x0, symName: __ZNSt3__117__compressed_pairIPPNS_4pairINS_12basic_stringIcNS_11char_traitsIcEENS_9allocatorIcEEEES7_EENS5_IS9_EEE6secondB8ue170006Ev, symObjAddr: 0x315C, symBinAddr: 0x1000085A8, symSize: 0x24 }
  - { offsetInCU: 0x2E4B9, offset: 0x2E4B9, size: 0x8, addend: 0x0, symName: __ZNSt3__122__compressed_pair_elemINS_9allocatorIPNS_4pairINS_12basic_stringIcNS_11char_traitsIcEENS1_IcEEEES7_EEEELi1ELb1EE5__getB8ue170006Ev, symObjAddr: 0x3180, symBinAddr: 0x1000085CC, symSize: 0x14 }
  - { offsetInCU: 0x2E4DF, offset: 0x2E4DF, size: 0x8, addend: 0x0, symName: __ZNKSt3__114__split_bufferIPNS_4pairINS_12basic_stringIcNS_11char_traitsIcEENS_9allocatorIcEEEES7_EENS5_IS9_EEE9__end_capB8ue170006Ev, symObjAddr: 0x3194, symBinAddr: 0x1000085E0, symSize: 0x28 }
  - { offsetInCU: 0x2E505, offset: 0x2E505, size: 0x8, addend: 0x0, symName: __ZNKSt3__117__compressed_pairIPPNS_4pairINS_12basic_stringIcNS_11char_traitsIcEENS_9allocatorIcEEEES7_EENS5_IS9_EEE5firstB8ue170006Ev, symObjAddr: 0x31BC, symBinAddr: 0x100008608, symSize: 0x24 }
  - { offsetInCU: 0x2E52B, offset: 0x2E52B, size: 0x8, addend: 0x0, symName: __ZNKSt3__122__compressed_pair_elemIPPNS_4pairINS_12basic_stringIcNS_11char_traitsIcEENS_9allocatorIcEEEES7_EELi0ELb0EE5__getB8ue170006Ev, symObjAddr: 0x31E0, symBinAddr: 0x10000862C, symSize: 0x14 }
  - { offsetInCU: 0x2E551, offset: 0x2E551, size: 0x8, addend: 0x0, symName: __ZNSt3__14__fs10filesystem4pathD2B8ue170006Ev, symObjAddr: 0x31F4, symBinAddr: 0x100008640, symSize: 0x2C }
  - { offsetInCU: 0x2E57B, offset: 0x2E57B, size: 0x8, addend: 0x0, symName: __ZNSt3__14__fs10filesystem18directory_iteratorC1B8ue170006EOS2_, symObjAddr: 0x3220, symBinAddr: 0x10000866C, symSize: 0x34 }
  - { offsetInCU: 0x2E5AF, offset: 0x2E5AF, size: 0x8, addend: 0x0, symName: __ZNSt3__14__fs10filesystem18directory_iteratorC2B8ue170006EOS2_, symObjAddr: 0x3254, symBinAddr: 0x1000086A0, symSize: 0x34 }
  - { offsetInCU: 0x2E5E3, offset: 0x2E5E3, size: 0x8, addend: 0x0, symName: __ZNSt3__110shared_ptrINS_4__fs10filesystem12__dir_streamEEC1B8ue170006EOS4_, symObjAddr: 0x3288, symBinAddr: 0x1000086D4, symSize: 0x34 }
  - { offsetInCU: 0x2E61C, offset: 0x2E61C, size: 0x8, addend: 0x0, symName: __ZNSt3__110shared_ptrINS_4__fs10filesystem12__dir_streamEEC2B8ue170006EOS4_, symObjAddr: 0x32BC, symBinAddr: 0x100008708, symSize: 0x40 }
  - { offsetInCU: 0x2E655, offset: 0x2E655, size: 0x8, addend: 0x0, symName: __ZNSt3__14__fs10filesystem18directory_iteratorC2B8ue170006ERKS2_, symObjAddr: 0x32FC, symBinAddr: 0x100008748, symSize: 0x34 }
  - { offsetInCU: 0x2E689, offset: 0x2E689, size: 0x8, addend: 0x0, symName: __ZNSt3__110shared_ptrINS_4__fs10filesystem12__dir_streamEEC1B8ue170006ERKS4_, symObjAddr: 0x3330, symBinAddr: 0x10000877C, symSize: 0x34 }
  - { offsetInCU: 0x2E6C2, offset: 0x2E6C2, size: 0x8, addend: 0x0, symName: __ZNSt3__110shared_ptrINS_4__fs10filesystem12__dir_streamEEC2B8ue170006ERKS4_, symObjAddr: 0x3364, symBinAddr: 0x1000087B0, symSize: 0x70 }
  - { offsetInCU: 0x2E6FB, offset: 0x2E6FB, size: 0x8, addend: 0x0, symName: __ZNSt3__119__shared_weak_count12__add_sharedB8ue170006Ev, symObjAddr: 0x33D4, symBinAddr: 0x100008820, symSize: 0x24 }
  - { offsetInCU: 0x2E721, offset: 0x2E721, size: 0x8, addend: 0x0, symName: __ZNSt3__114__shared_count12__add_sharedB8ue170006Ev, symObjAddr: 0x33F8, symBinAddr: 0x100008844, symSize: 0x28 }
  - { offsetInCU: 0x2E747, offset: 0x2E747, size: 0x8, addend: 0x0, symName: __ZNSt3__14__fs10filesystem18directory_iteratorD2B8ue170006Ev, symObjAddr: 0x3450, symBinAddr: 0x10000889C, symSize: 0x2C }
  - { offsetInCU: 0x2E771, offset: 0x2E771, size: 0x8, addend: 0x0, symName: __ZNSt3__110shared_ptrINS_4__fs10filesystem12__dir_streamEED1B8ue170006Ev, symObjAddr: 0x347C, symBinAddr: 0x1000088C8, symSize: 0x2C }
  - { offsetInCU: 0x2E79B, offset: 0x2E79B, size: 0x8, addend: 0x0, symName: __ZNSt3__110shared_ptrINS_4__fs10filesystem12__dir_streamEED2B8ue170006Ev, symObjAddr: 0x34A8, symBinAddr: 0x1000088F4, symSize: 0x54 }
  - { offsetInCU: 0x2E7C5, offset: 0x2E7C5, size: 0x8, addend: 0x0, symName: __ZNSt3__119__shared_weak_count16__release_sharedB8ue170006Ev, symObjAddr: 0x34FC, symBinAddr: 0x100008948, symSize: 0x3C }
  - { offsetInCU: 0x2E7EB, offset: 0x2E7EB, size: 0x8, addend: 0x0, symName: __ZNSt3__114__shared_count16__release_sharedB8ue170006Ev, symObjAddr: 0x3538, symBinAddr: 0x100008984, symSize: 0x7C }
  - { offsetInCU: 0x2E811, offset: 0x2E811, size: 0x8, addend: 0x0, symName: __ZNSt3__14__fs10filesystem18directory_iteratorC1B8ue170006Ev, symObjAddr: 0x35E4, symBinAddr: 0x100008A30, symSize: 0x2C }
  - { offsetInCU: 0x2E83B, offset: 0x2E83B, size: 0x8, addend: 0x0, symName: __ZNSt3__14__fs10filesystem18directory_iteratorC2B8ue170006Ev, symObjAddr: 0x3610, symBinAddr: 0x100008A5C, symSize: 0x2C }
  - { offsetInCU: 0x2E865, offset: 0x2E865, size: 0x8, addend: 0x0, symName: __ZNSt3__110shared_ptrINS_4__fs10filesystem12__dir_streamEEC1B8ue170006Ev, symObjAddr: 0x363C, symBinAddr: 0x100008A88, symSize: 0x2C }
  - { offsetInCU: 0x2E88F, offset: 0x2E88F, size: 0x8, addend: 0x0, symName: __ZNSt3__110shared_ptrINS_4__fs10filesystem12__dir_streamEEC2B8ue170006Ev, symObjAddr: 0x3668, symBinAddr: 0x100008AB4, symSize: 0x1C }
  - { offsetInCU: 0x2E8B9, offset: 0x2E8B9, size: 0x8, addend: 0x0, symName: __ZNKSt3__110shared_ptrINS_4__fs10filesystem12__dir_streamEE3getB8ue170006Ev, symObjAddr: 0x36FC, symBinAddr: 0x100008B48, symSize: 0x18 }
  - { offsetInCU: 0x2E8DF, offset: 0x2E8DF, size: 0x8, addend: 0x0, symName: __ZNKSt3__14__fs10filesystem15directory_entry8__get_ftB8ue170006EPNS_10error_codeE, symObjAddr: 0x3714, symBinAddr: 0x100008B60, symSize: 0x1B8 }
  - { offsetInCU: 0x2E931, offset: 0x2E931, size: 0x8, addend: 0x0, symName: __ZNKSt3__14__fs10filesystem11file_status4typeB8ue170006Ev, symObjAddr: 0x38CC, symBinAddr: 0x100008D18, symSize: 0x18 }
  - { offsetInCU: 0x2E957, offset: 0x2E957, size: 0x8, addend: 0x0, symName: __ZNSt3__14__fs10filesystem11file_statusD1B8ue170006Ev, symObjAddr: 0x38E4, symBinAddr: 0x100008D30, symSize: 0x2C }
  - { offsetInCU: 0x2E981, offset: 0x2E981, size: 0x8, addend: 0x0, symName: __ZNSt3__14__fs10filesystem11file_statusC1B8ue170006ENS1_9file_typeENS1_5permsE, symObjAddr: 0x3910, symBinAddr: 0x100008D5C, symSize: 0x3C }
  - { offsetInCU: 0x2E9C7, offset: 0x2E9C7, size: 0x8, addend: 0x0, symName: __ZNSt3__110error_code5clearB8ue170006Ev, symObjAddr: 0x3A04, symBinAddr: 0x100008E50, symSize: 0x34 }
  - { offsetInCU: 0x2E9ED, offset: 0x2E9ED, size: 0x8, addend: 0x0, symName: __ZNSt3__14__fs10filesystem11file_statusD2B8ue170006Ev, symObjAddr: 0x3A3C, symBinAddr: 0x100008E88, symSize: 0x14 }
  - { offsetInCU: 0x2EA17, offset: 0x2EA17, size: 0x8, addend: 0x0, symName: __ZNSt3__14__fs10filesystem11file_statusC2B8ue170006ENS1_9file_typeENS1_5permsE, symObjAddr: 0x3A50, symBinAddr: 0x100008E9C, symSize: 0x2C }
  - { offsetInCU: 0x2EA5D, offset: 0x2EA5D, size: 0x8, addend: 0x0, symName: __ZNSt3__110error_codeC1B8ue170006EiRKNS_14error_categoryE, symObjAddr: 0x3AAC, symBinAddr: 0x100008EF8, symSize: 0x3C }
  - { offsetInCU: 0x2EAA3, offset: 0x2EAA3, size: 0x8, addend: 0x0, symName: __ZNSt3__110error_codeC2B8ue170006EiRKNS_14error_categoryE, symObjAddr: 0x3AE8, symBinAddr: 0x100008F34, symSize: 0x2C }
  - { offsetInCU: 0x2EAE9, offset: 0x2EAE9, size: 0x8, addend: 0x0, symName: __ZNSt3__112basic_stringIcNS_11char_traitsIcEENS_9allocatorIcEEEC1INS_17basic_string_viewIcS2_EELi0EEERKT_, symObjAddr: 0x3B14, symBinAddr: 0x100008F60, symSize: 0x34 }
  - { offsetInCU: 0x2EB31, offset: 0x2EB31, size: 0x8, addend: 0x0, symName: __ZNSt3__14__fs10filesystem4pathC1B8ue170006EONS_12basic_stringIcNS_11char_traitsIcEENS_9allocatorIcEEEENS2_6formatE, symObjAddr: 0x3B48, symBinAddr: 0x100008F94, symSize: 0x3C }
  - { offsetInCU: 0x2EB76, offset: 0x2EB76, size: 0x8, addend: 0x0, symName: __ZNSt3__112basic_stringIcNS_11char_traitsIcEENS_9allocatorIcEEEC2INS_17basic_string_viewIcS2_EELi0EEERKT_, symObjAddr: 0x3B84, symBinAddr: 0x100008FD0, symSize: 0x70 }
  - { offsetInCU: 0x2EBDB, offset: 0x2EBDB, size: 0x8, addend: 0x0, symName: __ZNSt3__117__compressed_pairINS_12basic_stringIcNS_11char_traitsIcEENS_9allocatorIcEEE5__repES5_EC1B8ue170006INS_18__default_init_tagESA_EEOT_OT0_, symObjAddr: 0x3BF4, symBinAddr: 0x100009040, symSize: 0x3C }
  - { offsetInCU: 0x2EC33, offset: 0x2EC33, size: 0x8, addend: 0x0, symName: __ZNKSt3__117basic_string_viewIcNS_11char_traitsIcEEE4dataB8ue170006Ev, symObjAddr: 0x3C30, symBinAddr: 0x10000907C, symSize: 0x18 }
  - { offsetInCU: 0x2EC59, offset: 0x2EC59, size: 0x8, addend: 0x0, symName: __ZNKSt3__117basic_string_viewIcNS_11char_traitsIcEEE4sizeB8ue170006Ev, symObjAddr: 0x3C48, symBinAddr: 0x100009094, symSize: 0x18 }
  - { offsetInCU: 0x2EC7F, offset: 0x2EC7F, size: 0x8, addend: 0x0, symName: __ZNSt3__117__compressed_pairINS_12basic_stringIcNS_11char_traitsIcEENS_9allocatorIcEEE5__repES5_EC2B8ue170006INS_18__default_init_tagESA_EEOT_OT0_, symObjAddr: 0x3C60, symBinAddr: 0x1000090AC, symSize: 0x3C }
  - { offsetInCU: 0x2ECD7, offset: 0x2ECD7, size: 0x8, addend: 0x0, symName: __ZNSt3__122__compressed_pair_elemINS_12basic_stringIcNS_11char_traitsIcEENS_9allocatorIcEEE5__repELi0ELb0EEC2B8ue170006ENS_18__default_init_tagE, symObjAddr: 0x3C9C, symBinAddr: 0x1000090E8, symSize: 0x14 }
  - { offsetInCU: 0x2ED0B, offset: 0x2ED0B, size: 0x8, addend: 0x0, symName: __ZNSt3__122__compressed_pair_elemINS_9allocatorIcEELi1ELb1EEC2B8ue170006ENS_18__default_init_tagE, symObjAddr: 0x3CB0, symBinAddr: 0x1000090FC, symSize: 0x2C }
  - { offsetInCU: 0x2ED3F, offset: 0x2ED3F, size: 0x8, addend: 0x0, symName: __ZNSt3__19allocatorIcEC2B8ue170006Ev, symObjAddr: 0x3CDC, symBinAddr: 0x100009128, symSize: 0x2C }
  - { offsetInCU: 0x2ED69, offset: 0x2ED69, size: 0x8, addend: 0x0, symName: __ZNSt3__116__non_trivial_ifILb1ENS_9allocatorIcEEEC2B8ue170006Ev, symObjAddr: 0x3D08, symBinAddr: 0x100009154, symSize: 0x14 }
  - { offsetInCU: 0x2ED93, offset: 0x2ED93, size: 0x8, addend: 0x0, symName: __ZNSt3__14__fs10filesystem4pathC2B8ue170006EONS_12basic_stringIcNS_11char_traitsIcEENS_9allocatorIcEEEENS2_6formatE, symObjAddr: 0x3D1C, symBinAddr: 0x100009168, symSize: 0x38 }
  - { offsetInCU: 0x2EDD8, offset: 0x2EDD8, size: 0x8, addend: 0x0, symName: __ZNSt3__112basic_stringIcNS_11char_traitsIcEENS_9allocatorIcEEEC1B8ue170006EOS5_, symObjAddr: 0x3D54, symBinAddr: 0x1000091A0, symSize: 0x34 }
  - { offsetInCU: 0x2EE11, offset: 0x2EE11, size: 0x8, addend: 0x0, symName: __ZNSt3__112basic_stringIcNS_11char_traitsIcEENS_9allocatorIcEEEC2B8ue170006EOS5_, symObjAddr: 0x3D88, symBinAddr: 0x1000091D4, symSize: 0x50 }
  - { offsetInCU: 0x2EE4A, offset: 0x2EE4A, size: 0x8, addend: 0x0, symName: __ZNSt3__112basic_stringIcNS_11char_traitsIcEENS_9allocatorIcEEE14__default_initB8ue170006Ev, symObjAddr: 0x3DD8, symBinAddr: 0x100009224, symSize: 0x40 }
  - { offsetInCU: 0x2EE70, offset: 0x2EE70, size: 0x8, addend: 0x0, symName: __ZNSt3__117__compressed_pairINS_12basic_stringIcNS_11char_traitsIcEENS_9allocatorIcEEE5__repES5_E5firstB8ue170006Ev, symObjAddr: 0x3E18, symBinAddr: 0x100009264, symSize: 0x24 }
  - { offsetInCU: 0x2EE96, offset: 0x2EE96, size: 0x8, addend: 0x0, symName: __ZNSt3__122__compressed_pair_elemINS_12basic_stringIcNS_11char_traitsIcEENS_9allocatorIcEEE5__repELi0ELb0EE5__getB8ue170006Ev, symObjAddr: 0x3E3C, symBinAddr: 0x100009288, symSize: 0x14 }
  - { offsetInCU: 0x2EEBC, offset: 0x2EEBC, size: 0x8, addend: 0x0, symName: __ZNSt3__14pairINS_12basic_stringIcNS_11char_traitsIcEENS_9allocatorIcEEEES6_EC2B8ue170006IRS6_S9_LPv0EEEOT_OT0_, symObjAddr: 0x3E50, symBinAddr: 0x10000929C, symSize: 0x70 }
  - { offsetInCU: 0x2EF1A, offset: 0x2EF1A, size: 0x8, addend: 0x0, symName: __ZNSt3__14pairINS_12basic_stringIcNS_11char_traitsIcEENS_9allocatorIcEEEES6_ED2Ev, symObjAddr: 0x3EC0, symBinAddr: 0x10000930C, symSize: 0x38 }
  - { offsetInCU: 0x2EF46, offset: 0x2EF46, size: 0x8, addend: 0x0, symName: __ZNSt3__14pairINS_12basic_stringIcNS_11char_traitsIcEENS_9allocatorIcEEEES6_EC2B8ue170006IRA1_KcSB_LPv0EEEOT_OT0_, symObjAddr: 0x3EF8, symBinAddr: 0x100009344, symSize: 0x70 }
  - { offsetInCU: 0x2EFA4, offset: 0x2EFA4, size: 0x8, addend: 0x0, symName: __ZNSt3__14pairINS_12basic_stringIcNS_11char_traitsIcEENS_9allocatorIcEEEES6_EC2B8ue170006ILb1ELPv0EEEv, symObjAddr: 0x3F68, symBinAddr: 0x1000093B4, symSize: 0x38 }
  - { offsetInCU: 0x2EFDE, offset: 0x2EFDE, size: 0x8, addend: 0x0, symName: __ZNSt3__112basic_stringIcNS_11char_traitsIcEENS_9allocatorIcEEEC1B8ue170006Ev, symObjAddr: 0x3FA0, symBinAddr: 0x1000093EC, symSize: 0x2C }
  - { offsetInCU: 0x2F008, offset: 0x2F008, size: 0x8, addend: 0x0, symName: __ZNSt3__112basic_stringIcNS_11char_traitsIcEENS_9allocatorIcEEEC2B8ue170006Ev, symObjAddr: 0x3FCC, symBinAddr: 0x100009418, symSize: 0x44 }
  - { offsetInCU: 0x2F032, offset: 0x2F032, size: 0x8, addend: 0x0, symName: __ZNSt3__111__thread_idC1B8ue170006EP17_opaque_pthread_t, symObjAddr: 0x403C, symBinAddr: 0x100009488, symSize: 0x34 }
  - { offsetInCU: 0x2F06A, offset: 0x2F06A, size: 0x8, addend: 0x0, symName: __ZNSt3__111__thread_idC2B8ue170006EP17_opaque_pthread_t, symObjAddr: 0x4088, symBinAddr: 0x1000094D4, symSize: 0x20 }
  - { offsetInCU: 0x2F0A2, offset: 0x2F0A2, size: 0x8, addend: 0x0, symName: __ZN2cv11_InputArrayC2ERKNS_3MatE, symObjAddr: 0x40A8, symBinAddr: 0x1000094F4, symSize: 0x44 }
  - { offsetInCU: 0x2F0DC, offset: 0x2F0DC, size: 0x8, addend: 0x0, symName: __ZN2cv5Size_IiEC1Ev, symObjAddr: 0x40EC, symBinAddr: 0x100009538, symSize: 0x2C }
  - { offsetInCU: 0x2F108, offset: 0x2F108, size: 0x8, addend: 0x0, symName: __ZN2cv11_InputArray4initEiPKv, symObjAddr: 0x4118, symBinAddr: 0x100009564, symSize: 0x2C }
  - { offsetInCU: 0x2F14C, offset: 0x2F14C, size: 0x8, addend: 0x0, symName: __ZN2cv5Size_IiEC2Ev, symObjAddr: 0x4144, symBinAddr: 0x100009590, symSize: 0x1C }
  - { offsetInCU: 0x2F178, offset: 0x2F178, size: 0x8, addend: 0x0, symName: __ZN2cv12_OutputArrayC2ERNS_3MatE, symObjAddr: 0x4160, symBinAddr: 0x1000095AC, symSize: 0x40 }
  - { offsetInCU: 0x2F1B2, offset: 0x2F1B2, size: 0x8, addend: 0x0, symName: __ZN2cv11_InputArrayC2Ev, symObjAddr: 0x41A0, symBinAddr: 0x1000095EC, symSize: 0x40 }
  - { offsetInCU: 0x2F1DE, offset: 0x2F1DE, size: 0x8, addend: 0x0, symName: __ZN2cv12_OutputArrayD2Ev, symObjAddr: 0x41E0, symBinAddr: 0x10000962C, symSize: 0x2C }
  - { offsetInCU: 0x2F20B, offset: 0x2F20B, size: 0x8, addend: 0x0, symName: __ZN2cv11_InputArrayD2Ev, symObjAddr: 0x420C, symBinAddr: 0x100009658, symSize: 0x14 }
  - { offsetInCU: 0x2F237, offset: 0x2F237, size: 0x8, addend: 0x0, symName: __ZNKSt3__111__wrap_iterIPNS_6threadEE4baseB8ue170006Ev, symObjAddr: 0x4268, symBinAddr: 0x1000096B4, symSize: 0x18 }
  - { offsetInCU: 0x2F25D, offset: 0x2F25D, size: 0x8, addend: 0x0, symName: __ZNKSt3__112basic_stringIcNS_11char_traitsIcEENS_9allocatorIcEEE4sizeB8ue170006Ev, symObjAddr: 0x4280, symBinAddr: 0x1000096CC, symSize: 0x54 }
  - { offsetInCU: 0x2F283, offset: 0x2F283, size: 0x8, addend: 0x0, symName: __ZNKSt3__112basic_stringIcNS_11char_traitsIcEENS_9allocatorIcEEE9__is_longB8ue170006Ev, symObjAddr: 0x42D4, symBinAddr: 0x100009720, symSize: 0x38 }
  - { offsetInCU: 0x2F2A9, offset: 0x2F2A9, size: 0x8, addend: 0x0, symName: __ZNKSt3__112basic_stringIcNS_11char_traitsIcEENS_9allocatorIcEEE15__get_long_sizeB8ue170006Ev, symObjAddr: 0x430C, symBinAddr: 0x100009758, symSize: 0x28 }
  - { offsetInCU: 0x2F2CF, offset: 0x2F2CF, size: 0x8, addend: 0x0, symName: __ZNKSt3__112basic_stringIcNS_11char_traitsIcEENS_9allocatorIcEEE16__get_short_sizeB8ue170006Ev, symObjAddr: 0x4334, symBinAddr: 0x100009780, symSize: 0x34 }
  - { offsetInCU: 0x2F2F5, offset: 0x2F2F5, size: 0x8, addend: 0x0, symName: __ZNKSt3__117__compressed_pairINS_12basic_stringIcNS_11char_traitsIcEENS_9allocatorIcEEE5__repES5_E5firstB8ue170006Ev, symObjAddr: 0x4368, symBinAddr: 0x1000097B4, symSize: 0x24 }
  - { offsetInCU: 0x2F31B, offset: 0x2F31B, size: 0x8, addend: 0x0, symName: __ZNKSt3__122__compressed_pair_elemINS_12basic_stringIcNS_11char_traitsIcEENS_9allocatorIcEEE5__repELi0ELb0EE5__getB8ue170006Ev, symObjAddr: 0x438C, symBinAddr: 0x1000097D8, symSize: 0x14 }
  - { offsetInCU: 0x2F341, offset: 0x2F341, size: 0x8, addend: 0x0, symName: __ZNSt3__112basic_stringIcNS_11char_traitsIcEENS_9allocatorIcEEEC2B8ue170006ILi0EEEPKc, symObjAddr: 0x43A0, symBinAddr: 0x1000097EC, symSize: 0x58 }
  - { offsetInCU: 0x2F380, offset: 0x2F380, size: 0x8, addend: 0x0, symName: __ZNSt3__111char_traitsIcE6lengthB8ue170006EPKc, symObjAddr: 0x43F8, symBinAddr: 0x100009844, symSize: 0x34 }
  - { offsetInCU: 0x2F3C6, offset: 0x2F3C6, size: 0x8, addend: 0x0, symName: __ZNKSt3__113basic_ostreamIcNS_11char_traitsIcEEE6sentrycvbB8ue170006Ev, symObjAddr: 0x463C, symBinAddr: 0x100009A88, symSize: 0x1C }
  - { offsetInCU: 0x2F3EC, offset: 0x2F3EC, size: 0x8, addend: 0x0, symName: __ZNSt3__119ostreambuf_iteratorIcNS_11char_traitsIcEEEC1B8ue170006ERNS_13basic_ostreamIcS2_EE, symObjAddr: 0x4898, symBinAddr: 0x100009CE4, symSize: 0x34 }
  - { offsetInCU: 0x2F424, offset: 0x2F424, size: 0x8, addend: 0x0, symName: __ZNKSt3__18ios_base5flagsB8ue170006Ev, symObjAddr: 0x48CC, symBinAddr: 0x100009D18, symSize: 0x18 }
  - { offsetInCU: 0x2F44C, offset: 0x2F44C, size: 0x8, addend: 0x0, symName: __ZNKSt3__19basic_iosIcNS_11char_traitsIcEEE4fillB8ue170006Ev, symObjAddr: 0x48E4, symBinAddr: 0x100009D30, symSize: 0x64 }
  - { offsetInCU: 0x2F474, offset: 0x2F474, size: 0x8, addend: 0x0, symName: __ZNKSt3__119ostreambuf_iteratorIcNS_11char_traitsIcEEE6failedB8ue170006Ev, symObjAddr: 0x4948, symBinAddr: 0x100009D94, symSize: 0x24 }
  - { offsetInCU: 0x2F49A, offset: 0x2F49A, size: 0x8, addend: 0x0, symName: __ZNSt3__19basic_iosIcNS_11char_traitsIcEEE8setstateB8ue170006Ej, symObjAddr: 0x496C, symBinAddr: 0x100009DB8, symSize: 0x2C }
  - { offsetInCU: 0x2F4CF, offset: 0x2F4CF, size: 0x8, addend: 0x0, symName: __ZNKSt3__18ios_base5widthB8ue170006Ev, symObjAddr: 0x4998, symBinAddr: 0x100009DE4, symSize: 0x18 }
  - { offsetInCU: 0x2F4F7, offset: 0x2F4F7, size: 0x8, addend: 0x0, symName: __ZNSt3__115basic_streambufIcNS_11char_traitsIcEEE5sputnB8ue170006EPKcl, symObjAddr: 0x49B0, symBinAddr: 0x100009DFC, symSize: 0x3C }
  - { offsetInCU: 0x2F539, offset: 0x2F539, size: 0x8, addend: 0x0, symName: __ZNSt3__112basic_stringIcNS_11char_traitsIcEENS_9allocatorIcEEEC1B8ue170006Emc, symObjAddr: 0x49EC, symBinAddr: 0x100009E38, symSize: 0x3C }
  - { offsetInCU: 0x2F581, offset: 0x2F581, size: 0x8, addend: 0x0, symName: __ZNSt3__112basic_stringIcNS_11char_traitsIcEENS_9allocatorIcEEE4dataB8ue170006Ev, symObjAddr: 0x4A28, symBinAddr: 0x100009E74, symSize: 0x28 }
  - { offsetInCU: 0x2F5A7, offset: 0x2F5A7, size: 0x8, addend: 0x0, symName: __ZNSt3__18ios_base5widthB8ue170006El, symObjAddr: 0x4A50, symBinAddr: 0x100009E9C, symSize: 0x2C }
  - { offsetInCU: 0x2F5ED, offset: 0x2F5ED, size: 0x8, addend: 0x0, symName: __ZNSt3__112basic_stringIcNS_11char_traitsIcEENS_9allocatorIcEEEC2B8ue170006Emc, symObjAddr: 0x4A7C, symBinAddr: 0x100009EC8, symSize: 0x4C }
  - { offsetInCU: 0x2F635, offset: 0x2F635, size: 0x8, addend: 0x0, symName: __ZNSt3__112basic_stringIcNS_11char_traitsIcEENS_9allocatorIcEEE13__get_pointerB8ue170006Ev, symObjAddr: 0x4ADC, symBinAddr: 0x100009F28, symSize: 0x54 }
  - { offsetInCU: 0x2F65B, offset: 0x2F65B, size: 0x8, addend: 0x0, symName: __ZNSt3__112basic_stringIcNS_11char_traitsIcEENS_9allocatorIcEEE18__get_long_pointerB8ue170006Ev, symObjAddr: 0x4B30, symBinAddr: 0x100009F7C, symSize: 0x28 }
  - { offsetInCU: 0x2F681, offset: 0x2F681, size: 0x8, addend: 0x0, symName: __ZNSt3__112basic_stringIcNS_11char_traitsIcEENS_9allocatorIcEEE19__get_short_pointerB8ue170006Ev, symObjAddr: 0x4B58, symBinAddr: 0x100009FA4, symSize: 0x28 }
  - { offsetInCU: 0x2F6A7, offset: 0x2F6A7, size: 0x8, addend: 0x0, symName: __ZNSt3__114pointer_traitsIPcE10pointer_toB8ue170006ERc, symObjAddr: 0x4B80, symBinAddr: 0x100009FCC, symSize: 0x14 }
  - { offsetInCU: 0x2F6CA, offset: 0x2F6CA, size: 0x8, addend: 0x0, symName: __ZNSt3__119ostreambuf_iteratorIcNS_11char_traitsIcEEEC2B8ue170006ERNS_13basic_ostreamIcS2_EE, symObjAddr: 0x4B94, symBinAddr: 0x100009FE0, symSize: 0x54 }
  - { offsetInCU: 0x2F702, offset: 0x2F702, size: 0x8, addend: 0x0, symName: __ZNKSt3__19basic_iosIcNS_11char_traitsIcEEE5rdbufB8ue170006Ev, symObjAddr: 0x4BE8, symBinAddr: 0x10000A034, symSize: 0x24 }
  - { offsetInCU: 0x2F72A, offset: 0x2F72A, size: 0x8, addend: 0x0, symName: __ZNKSt3__18ios_base5rdbufB8ue170006Ev, symObjAddr: 0x4C0C, symBinAddr: 0x10000A058, symSize: 0x18 }
  - { offsetInCU: 0x2F750, offset: 0x2F750, size: 0x8, addend: 0x0, symName: __ZNSt3__111char_traitsIcE11eq_int_typeB8ue170006Eii, symObjAddr: 0x4C24, symBinAddr: 0x10000A070, symSize: 0x28 }
  - { offsetInCU: 0x2F783, offset: 0x2F783, size: 0x8, addend: 0x0, symName: __ZNSt3__111char_traitsIcE3eofB8ue170006Ev, symObjAddr: 0x4C4C, symBinAddr: 0x10000A098, symSize: 0x8 }
  - { offsetInCU: 0x2F797, offset: 0x2F797, size: 0x8, addend: 0x0, symName: __ZNKSt3__19basic_iosIcNS_11char_traitsIcEEE5widenB8ue170006Ec, symObjAddr: 0x4C54, symBinAddr: 0x10000A0A0, symSize: 0x84 }
  - { offsetInCU: 0x2F807, offset: 0x2F807, size: 0x8, addend: 0x0, symName: __ZNKSt3__15ctypeIcE5widenB8ue170006Ec, symObjAddr: 0x4D04, symBinAddr: 0x10000A150, symSize: 0x38 }
  - { offsetInCU: 0x2F83C, offset: 0x2F83C, size: 0x8, addend: 0x0, symName: __ZNSt3__18ios_base8setstateB8ue170006Ej, symObjAddr: 0x4D3C, symBinAddr: 0x10000A188, symSize: 0x34 }
  - { offsetInCU: 0x2F873, offset: 0x2F873, size: 0x8, addend: 0x0, symName: __ZNKSt3__112basic_stringIcNS_11char_traitsIcEENS_9allocatorIcEEE4dataB8ue170006Ev, symObjAddr: 0x4D70, symBinAddr: 0x10000A1BC, symSize: 0x28 }
  - { offsetInCU: 0x2F899, offset: 0x2F899, size: 0x8, addend: 0x0, symName: __ZNKSt3__112basic_stringIcNS_11char_traitsIcEENS_9allocatorIcEEE13__get_pointerB8ue170006Ev, symObjAddr: 0x4DAC, symBinAddr: 0x10000A1F8, symSize: 0x54 }
  - { offsetInCU: 0x2F8BF, offset: 0x2F8BF, size: 0x8, addend: 0x0, symName: __ZNKSt3__112basic_stringIcNS_11char_traitsIcEENS_9allocatorIcEEE18__get_long_pointerB8ue170006Ev, symObjAddr: 0x4E00, symBinAddr: 0x10000A24C, symSize: 0x28 }
  - { offsetInCU: 0x2F8E5, offset: 0x2F8E5, size: 0x8, addend: 0x0, symName: __ZNKSt3__112basic_stringIcNS_11char_traitsIcEENS_9allocatorIcEEE19__get_short_pointerB8ue170006Ev, symObjAddr: 0x4E28, symBinAddr: 0x10000A274, symSize: 0x28 }
  - { offsetInCU: 0x2F90B, offset: 0x2F90B, size: 0x8, addend: 0x0, symName: __ZNSt3__114pointer_traitsIPKcE10pointer_toB8ue170006ERS1_, symObjAddr: 0x4E50, symBinAddr: 0x10000A29C, symSize: 0x14 }
  - { offsetInCU: 0x2F92E, offset: 0x2F92E, size: 0x8, addend: 0x0, symName: __ZNSt3__16vectorIiNS_9allocatorIiEEEC2B8ue170006Ev, symObjAddr: 0x4E64, symBinAddr: 0x10000A2B0, symSize: 0x4C }
  - { offsetInCU: 0x2F958, offset: 0x2F958, size: 0x8, addend: 0x0, symName: __ZNSt3__117__compressed_pairIPiNS_9allocatorIiEEEC1B8ue170006IDnNS_18__default_init_tagEEEOT_OT0_, symObjAddr: 0x4EB0, symBinAddr: 0x10000A2FC, symSize: 0x3C }
  - { offsetInCU: 0x2F9B0, offset: 0x2F9B0, size: 0x8, addend: 0x0, symName: __ZNSt3__117__compressed_pairIPiNS_9allocatorIiEEEC2B8ue170006IDnNS_18__default_init_tagEEEOT_OT0_, symObjAddr: 0x4EEC, symBinAddr: 0x10000A338, symSize: 0x40 }
  - { offsetInCU: 0x2FA08, offset: 0x2FA08, size: 0x8, addend: 0x0, symName: __ZNSt3__122__compressed_pair_elemIPiLi0ELb0EEC2B8ue170006IDnvEEOT_, symObjAddr: 0x4F2C, symBinAddr: 0x10000A378, symSize: 0x1C }
  - { offsetInCU: 0x2FA4A, offset: 0x2FA4A, size: 0x8, addend: 0x0, symName: __ZNSt3__122__compressed_pair_elemINS_9allocatorIiEELi1ELb1EEC2B8ue170006ENS_18__default_init_tagE, symObjAddr: 0x4F48, symBinAddr: 0x10000A394, symSize: 0x2C }
  - { offsetInCU: 0x2FA7E, offset: 0x2FA7E, size: 0x8, addend: 0x0, symName: __ZNSt3__19allocatorIiEC2B8ue170006Ev, symObjAddr: 0x4F74, symBinAddr: 0x10000A3C0, symSize: 0x2C }
  - { offsetInCU: 0x2FAA8, offset: 0x2FAA8, size: 0x8, addend: 0x0, symName: __ZNSt3__116__non_trivial_ifILb1ENS_9allocatorIiEEEC2B8ue170006Ev, symObjAddr: 0x4FA0, symBinAddr: 0x10000A3EC, symSize: 0x14 }
  - { offsetInCU: 0x2FAD2, offset: 0x2FAD2, size: 0x8, addend: 0x0, symName: __ZNSt3__16vectorIiNS_9allocatorIiEEED2B8ue170006Ev, symObjAddr: 0x4FB4, symBinAddr: 0x10000A400, symSize: 0x44 }
  - { offsetInCU: 0x2FAFC, offset: 0x2FAFC, size: 0x8, addend: 0x0, symName: __ZNSt3__16vectorIiNS_9allocatorIiEEE16__destroy_vectorC1B8ue170006ERS3_, symObjAddr: 0x4FF8, symBinAddr: 0x10000A444, symSize: 0x34 }
  - { offsetInCU: 0x2FB35, offset: 0x2FB35, size: 0x8, addend: 0x0, symName: __ZNSt3__16vectorIiNS_9allocatorIiEEE16__destroy_vectorclB8ue170006Ev, symObjAddr: 0x502C, symBinAddr: 0x10000A478, symSize: 0x90 }
  - { offsetInCU: 0x2FB5B, offset: 0x2FB5B, size: 0x8, addend: 0x0, symName: __ZNSt3__16vectorIiNS_9allocatorIiEEE16__destroy_vectorC2B8ue170006ERS3_, symObjAddr: 0x50BC, symBinAddr: 0x10000A508, symSize: 0x20 }
  - { offsetInCU: 0x2FB94, offset: 0x2FB94, size: 0x8, addend: 0x0, symName: __ZNSt3__16vectorIiNS_9allocatorIiEEE7__clearB8ue170006Ev, symObjAddr: 0x50DC, symBinAddr: 0x10000A528, symSize: 0x28 }
  - { offsetInCU: 0x2FBBA, offset: 0x2FBBA, size: 0x8, addend: 0x0, symName: __ZNKSt3__16vectorIiNS_9allocatorIiEEE17__annotate_deleteB8ue170006Ev, symObjAddr: 0x5104, symBinAddr: 0x10000A550, symSize: 0xB8 }
  - { offsetInCU: 0x2FBE0, offset: 0x2FBE0, size: 0x8, addend: 0x0, symName: __ZNSt3__116allocator_traitsINS_9allocatorIiEEE10deallocateB8ue170006ERS2_Pim, symObjAddr: 0x51BC, symBinAddr: 0x10000A608, symSize: 0x34 }
  - { offsetInCU: 0x2FC22, offset: 0x2FC22, size: 0x8, addend: 0x0, symName: __ZNSt3__16vectorIiNS_9allocatorIiEEE7__allocB8ue170006Ev, symObjAddr: 0x51F0, symBinAddr: 0x10000A63C, symSize: 0x28 }
  - { offsetInCU: 0x2FC48, offset: 0x2FC48, size: 0x8, addend: 0x0, symName: __ZNKSt3__16vectorIiNS_9allocatorIiEEE8capacityB8ue170006Ev, symObjAddr: 0x5218, symBinAddr: 0x10000A664, symSize: 0x40 }
  - { offsetInCU: 0x2FC6E, offset: 0x2FC6E, size: 0x8, addend: 0x0, symName: __ZNSt3__16vectorIiNS_9allocatorIiEEE22__base_destruct_at_endB8ue170006EPi, symObjAddr: 0x5258, symBinAddr: 0x10000A6A4, symSize: 0x8C }
  - { offsetInCU: 0x2FCB2, offset: 0x2FCB2, size: 0x8, addend: 0x0, symName: __ZNSt3__116allocator_traitsINS_9allocatorIiEEE7destroyB8ue170006IivEEvRS2_PT_, symObjAddr: 0x52E4, symBinAddr: 0x10000A730, symSize: 0x2C }
  - { offsetInCU: 0x2FCEF, offset: 0x2FCEF, size: 0x8, addend: 0x0, symName: __ZNSt3__19allocatorIiE7destroyB8ue170006EPi, symObjAddr: 0x5324, symBinAddr: 0x10000A770, symSize: 0x14 }
  - { offsetInCU: 0x2FD23, offset: 0x2FD23, size: 0x8, addend: 0x0, symName: __ZNKSt3__16vectorIiNS_9allocatorIiEEE31__annotate_contiguous_containerB8ue170006EPKvS5_S5_S5_, symObjAddr: 0x5338, symBinAddr: 0x10000A784, symSize: 0x20 }
  - { offsetInCU: 0x2FD79, offset: 0x2FD79, size: 0x8, addend: 0x0, symName: __ZNKSt3__16vectorIiNS_9allocatorIiEEE4dataB8ue170006Ev, symObjAddr: 0x5358, symBinAddr: 0x10000A7A4, symSize: 0x28 }
  - { offsetInCU: 0x2FD9F, offset: 0x2FD9F, size: 0x8, addend: 0x0, symName: __ZNKSt3__16vectorIiNS_9allocatorIiEEE4sizeB8ue170006Ev, symObjAddr: 0x5380, symBinAddr: 0x10000A7CC, symSize: 0x28 }
  - { offsetInCU: 0x2FDC5, offset: 0x2FDC5, size: 0x8, addend: 0x0, symName: __ZNSt3__19allocatorIiE10deallocateB8ue170006EPim, symObjAddr: 0x53A8, symBinAddr: 0x10000A7F4, symSize: 0x40 }
  - { offsetInCU: 0x2FE07, offset: 0x2FE07, size: 0x8, addend: 0x0, symName: __ZNSt3__117__compressed_pairIPiNS_9allocatorIiEEE6secondB8ue170006Ev, symObjAddr: 0x53E8, symBinAddr: 0x10000A834, symSize: 0x24 }
  - { offsetInCU: 0x2FE2D, offset: 0x2FE2D, size: 0x8, addend: 0x0, symName: __ZNSt3__122__compressed_pair_elemINS_9allocatorIiEELi1ELb1EE5__getB8ue170006Ev, symObjAddr: 0x540C, symBinAddr: 0x10000A858, symSize: 0x14 }
  - { offsetInCU: 0x2FE53, offset: 0x2FE53, size: 0x8, addend: 0x0, symName: __ZNKSt3__16vectorIiNS_9allocatorIiEEE9__end_capB8ue170006Ev, symObjAddr: 0x5420, symBinAddr: 0x10000A86C, symSize: 0x28 }
  - { offsetInCU: 0x2FE79, offset: 0x2FE79, size: 0x8, addend: 0x0, symName: __ZNKSt3__117__compressed_pairIPiNS_9allocatorIiEEE5firstB8ue170006Ev, symObjAddr: 0x5448, symBinAddr: 0x10000A894, symSize: 0x24 }
  - { offsetInCU: 0x2FE9F, offset: 0x2FE9F, size: 0x8, addend: 0x0, symName: __ZNKSt3__122__compressed_pair_elemIPiLi0ELb0EE5__getB8ue170006Ev, symObjAddr: 0x546C, symBinAddr: 0x10000A8B8, symSize: 0x14 }
  - { offsetInCU: 0x2FEC5, offset: 0x2FEC5, size: 0x8, addend: 0x0, symName: __ZNSt3__14__fs10filesystem4pathC2B8ue170006INS_12basic_stringIcNS_11char_traitsIcEENS_9allocatorIcEEEEvEERKT_NS2_6formatE, symObjAddr: 0x5480, symBinAddr: 0x10000A8CC, symSize: 0x68 }
  - { offsetInCU: 0x2FF1A, offset: 0x2FF1A, size: 0x8, addend: 0x0, symName: __ZNSt3__14__fs10filesystem8_PathCVTIcE15__append_sourceB8ue170006INS_12basic_stringIcNS_11char_traitsIcEENS_9allocatorIcEEEEEEvRSA_RKT_, symObjAddr: 0x54E8, symBinAddr: 0x10000A934, symSize: 0x4C }
  - { offsetInCU: 0x2FF56, offset: 0x2FF56, size: 0x8, addend: 0x0, symName: __ZNSt3__14__fs10filesystem8_PathCVTIcE14__append_rangeB8ue170006IPKcEENS_9enable_ifIXsr31__has_forward_iterator_categoryIT_EE5valueEvE4typeERNS_12basic_stringIcNS_11char_traitsIcEENS_9allocatorIcEEEES8_S8_, symObjAddr: 0x5534, symBinAddr: 0x10000A980, symSize: 0x34 }
  - { offsetInCU: 0x2FFAC, offset: 0x2FFAC, size: 0x8, addend: 0x0, symName: __ZNSt3__14__fs10filesystem20__is_pathable_stringINS_12basic_stringIcNS_11char_traitsIcEENS_9allocatorIcEEEEvE13__range_beginB8ue170006ERKS8_, symObjAddr: 0x5568, symBinAddr: 0x10000A9B4, symSize: 0x24 }
  - { offsetInCU: 0x2FFCF, offset: 0x2FFCF, size: 0x8, addend: 0x0, symName: __ZNSt3__14__fs10filesystem20__is_pathable_stringINS_12basic_stringIcNS_11char_traitsIcEENS_9allocatorIcEEEEvE11__range_endB8ue170006ERKS8_, symObjAddr: 0x558C, symBinAddr: 0x10000A9D8, symSize: 0x3C }
  - { offsetInCU: 0x2FFF2, offset: 0x2FFF2, size: 0x8, addend: 0x0, symName: __ZNSt3__112basic_stringIcNS_11char_traitsIcEENS_9allocatorIcEEE6appendB8ue170006IPKcLi0EEERS5_T_SA_, symObjAddr: 0x55C8, symBinAddr: 0x10000AA14, symSize: 0x1E4 }
  - { offsetInCU: 0x300A6, offset: 0x300A6, size: 0x8, addend: 0x0, symName: __ZNKSt3__112basic_stringIcNS_11char_traitsIcEENS_9allocatorIcEEE8capacityB8ue170006Ev, symObjAddr: 0x57AC, symBinAddr: 0x10000ABF8, symSize: 0x54 }
  - { offsetInCU: 0x300CC, offset: 0x300CC, size: 0x8, addend: 0x0, symName: __ZNKSt3__112basic_stringIcNS_11char_traitsIcEENS_9allocatorIcEEE15__addr_in_rangeB8ue170006IcEEbRKT_, symObjAddr: 0x582C, symBinAddr: 0x10000AC78, symSize: 0x6C }
  - { offsetInCU: 0x3010A, offset: 0x3010A, size: 0x8, addend: 0x0, symName: __ZNSt3__112basic_stringIcNS_11char_traitsIcEENS_9allocatorIcEEE25__grow_by_without_replaceB8ue170006Emmmmmm, symObjAddr: 0x5898, symBinAddr: 0x10000ACE4, symSize: 0x74 }
  - { offsetInCU: 0x3018C, offset: 0x3018C, size: 0x8, addend: 0x0, symName: __ZNSt3__111char_traitsIcE6assignB8ue170006ERcRKc, symObjAddr: 0x590C, symBinAddr: 0x10000AD58, symSize: 0x24 }
  - { offsetInCU: 0x301BD, offset: 0x301BD, size: 0x8, addend: 0x0, symName: __ZNSt3__112basic_stringIcNS_11char_traitsIcEENS_9allocatorIcEEE10__set_sizeB8ue170006Em, symObjAddr: 0x5930, symBinAddr: 0x10000AD7C, symSize: 0x54 }
  - { offsetInCU: 0x301F2, offset: 0x301F2, size: 0x8, addend: 0x0, symName: __ZNSt3__112basic_stringIcNS_11char_traitsIcEENS_9allocatorIcEEE7__allocB8ue170006Ev, symObjAddr: 0x5984, symBinAddr: 0x10000ADD0, symSize: 0x24 }
  - { offsetInCU: 0x30218, offset: 0x30218, size: 0x8, addend: 0x0, symName: __ZNSt3__112basic_stringIcNS_11char_traitsIcEENS_9allocatorIcEEEC1B8ue170006IPKcLi0EEET_S9_RKS4_, symObjAddr: 0x59A8, symBinAddr: 0x10000ADF4, symSize: 0x44 }
  - { offsetInCU: 0x3027E, offset: 0x3027E, size: 0x8, addend: 0x0, symName: __ZNKSt3__112basic_stringIcNS_11char_traitsIcEENS_9allocatorIcEEE14__get_long_capB8ue170006Ev, symObjAddr: 0x59EC, symBinAddr: 0x10000AE38, symSize: 0x30 }
  - { offsetInCU: 0x302BA, offset: 0x302BA, size: 0x8, addend: 0x0, symName: __ZNKSt3__16__lessIvvEclB8ue170006IPKcS4_EEbRKT_RKT0_, symObjAddr: 0x5AA4, symBinAddr: 0x10000AEF0, symSize: 0x34 }
  - { offsetInCU: 0x3030E, offset: 0x3030E, size: 0x8, addend: 0x0, symName: __ZNSt3__112basic_stringIcNS_11char_traitsIcEENS_9allocatorIcEEE15__set_long_sizeB8ue170006Em, symObjAddr: 0x5AD8, symBinAddr: 0x10000AF24, symSize: 0x38 }
  - { offsetInCU: 0x30343, offset: 0x30343, size: 0x8, addend: 0x0, symName: __ZNSt3__112basic_stringIcNS_11char_traitsIcEENS_9allocatorIcEEE16__set_short_sizeB8ue170006Em, symObjAddr: 0x5B10, symBinAddr: 0x10000AF5C, symSize: 0x78 }
  - { offsetInCU: 0x30378, offset: 0x30378, size: 0x8, addend: 0x0, symName: __ZNSt3__117__compressed_pairINS_12basic_stringIcNS_11char_traitsIcEENS_9allocatorIcEEE5__repES5_E6secondB8ue170006Ev, symObjAddr: 0x5B88, symBinAddr: 0x10000AFD4, symSize: 0x24 }
  - { offsetInCU: 0x3039E, offset: 0x3039E, size: 0x8, addend: 0x0, symName: __ZNSt3__122__compressed_pair_elemINS_9allocatorIcEELi1ELb1EE5__getB8ue170006Ev, symObjAddr: 0x5BAC, symBinAddr: 0x10000AFF8, symSize: 0x14 }
  - { offsetInCU: 0x303C4, offset: 0x303C4, size: 0x8, addend: 0x0, symName: __ZNSt3__112basic_stringIcNS_11char_traitsIcEENS_9allocatorIcEEEC2B8ue170006IPKcLi0EEET_S9_RKS4_, symObjAddr: 0x5BC0, symBinAddr: 0x10000B00C, symSize: 0x50 }
  - { offsetInCU: 0x3042A, offset: 0x3042A, size: 0x8, addend: 0x0, symName: __ZNSt3__117__compressed_pairINS_12basic_stringIcNS_11char_traitsIcEENS_9allocatorIcEEE5__repES5_EC1B8ue170006INS_18__default_init_tagERKS5_EEOT_OT0_, symObjAddr: 0x5C10, symBinAddr: 0x10000B05C, symSize: 0x3C }
  - { offsetInCU: 0x30482, offset: 0x30482, size: 0x8, addend: 0x0, symName: __ZNSt3__112basic_stringIcNS_11char_traitsIcEENS_9allocatorIcEEE6__initIPKcLi0EEEvT_S9_, symObjAddr: 0x5C4C, symBinAddr: 0x10000B098, symSize: 0x54 }
  - { offsetInCU: 0x304E6, offset: 0x304E6, size: 0x8, addend: 0x0, symName: __ZNSt3__117__compressed_pairINS_12basic_stringIcNS_11char_traitsIcEENS_9allocatorIcEEE5__repES5_EC2B8ue170006INS_18__default_init_tagERKS5_EEOT_OT0_, symObjAddr: 0x5CA0, symBinAddr: 0x10000B0EC, symSize: 0x40 }
  - { offsetInCU: 0x3053E, offset: 0x3053E, size: 0x8, addend: 0x0, symName: __ZNSt3__122__compressed_pair_elemINS_9allocatorIcEELi1ELb1EEC2B8ue170006IRKS2_vEEOT_, symObjAddr: 0x5CE0, symBinAddr: 0x10000B12C, symSize: 0x18 }
  - { offsetInCU: 0x30580, offset: 0x30580, size: 0x8, addend: 0x0, symName: __ZNSt3__112basic_stringIcNS_11char_traitsIcEENS_9allocatorIcEEE16__init_with_sizeB8ue170006IPKcS8_EEvT_T0_m, symObjAddr: 0x5CF8, symBinAddr: 0x10000B144, symSize: 0x144 }
  - { offsetInCU: 0x30613, offset: 0x30613, size: 0x8, addend: 0x0, symName: __ZNKSt3__112basic_stringIcNS_11char_traitsIcEENS_9allocatorIcEEE8max_sizeB8ue170006Ev, symObjAddr: 0x5E3C, symBinAddr: 0x10000B288, symSize: 0xAC }
  - { offsetInCU: 0x30665, offset: 0x30665, size: 0x8, addend: 0x0, symName: __ZNKSt3__112basic_stringIcNS_11char_traitsIcEENS_9allocatorIcEEE20__throw_length_errorB8ue170006Ev, symObjAddr: 0x5EE8, symBinAddr: 0x10000B334, symSize: 0x1C }
  - { offsetInCU: 0x3068B, offset: 0x3068B, size: 0x8, addend: 0x0, symName: __ZNSt3__112basic_stringIcNS_11char_traitsIcEENS_9allocatorIcEEE13__fits_in_ssoB8ue170006Em, symObjAddr: 0x5F04, symBinAddr: 0x10000B350, symSize: 0x20 }
  - { offsetInCU: 0x306AF, offset: 0x306AF, size: 0x8, addend: 0x0, symName: __ZNSt3__112basic_stringIcNS_11char_traitsIcEENS_9allocatorIcEEE11__recommendB8ue170006Em, symObjAddr: 0x5F64, symBinAddr: 0x10000B3B0, symSize: 0x84 }
  - { offsetInCU: 0x306E2, offset: 0x306E2, size: 0x8, addend: 0x0, symName: __ZNSt3__112basic_stringIcNS_11char_traitsIcEENS_9allocatorIcEEE16__begin_lifetimeB8ue170006EPcm, symObjAddr: 0x5FE8, symBinAddr: 0x10000B434, symSize: 0x14 }
  - { offsetInCU: 0x30715, offset: 0x30715, size: 0x8, addend: 0x0, symName: __ZNSt3__112basic_stringIcNS_11char_traitsIcEENS_9allocatorIcEEE18__set_long_pointerB8ue170006EPc, symObjAddr: 0x5FFC, symBinAddr: 0x10000B448, symSize: 0x38 }
  - { offsetInCU: 0x3074A, offset: 0x3074A, size: 0x8, addend: 0x0, symName: __ZNSt3__112basic_stringIcNS_11char_traitsIcEENS_9allocatorIcEEE14__set_long_capB8ue170006Em, symObjAddr: 0x6034, symBinAddr: 0x10000B480, symSize: 0x70 }
  - { offsetInCU: 0x3078A, offset: 0x3078A, size: 0x8, addend: 0x0, symName: __ZNSt3__116allocator_traitsINS_9allocatorIcEEE8max_sizeB8ue170006IS2_vEEmRKS2_, symObjAddr: 0x60A4, symBinAddr: 0x10000B4F0, symSize: 0x24 }
  - { offsetInCU: 0x307B8, offset: 0x307B8, size: 0x8, addend: 0x0, symName: __ZNKSt3__112basic_stringIcNS_11char_traitsIcEENS_9allocatorIcEEE7__allocB8ue170006Ev, symObjAddr: 0x60C8, symBinAddr: 0x10000B514, symSize: 0x24 }
  - { offsetInCU: 0x307DE, offset: 0x307DE, size: 0x8, addend: 0x0, symName: __ZNSt3__114numeric_limitsImE3maxB8ue170006Ev, symObjAddr: 0x60EC, symBinAddr: 0x10000B538, symSize: 0x14 }
  - { offsetInCU: 0x307F2, offset: 0x307F2, size: 0x8, addend: 0x0, symName: __ZNKSt3__19allocatorIcE8max_sizeB8ue170006Ev, symObjAddr: 0x6100, symBinAddr: 0x10000B54C, symSize: 0x14 }
  - { offsetInCU: 0x30818, offset: 0x30818, size: 0x8, addend: 0x0, symName: __ZNKSt3__117__compressed_pairINS_12basic_stringIcNS_11char_traitsIcEENS_9allocatorIcEEE5__repES5_E6secondB8ue170006Ev, symObjAddr: 0x6114, symBinAddr: 0x10000B560, symSize: 0x24 }
  - { offsetInCU: 0x3083E, offset: 0x3083E, size: 0x8, addend: 0x0, symName: __ZNKSt3__122__compressed_pair_elemINS_9allocatorIcEELi1ELb1EE5__getB8ue170006Ev, symObjAddr: 0x6138, symBinAddr: 0x10000B584, symSize: 0x14 }
  - { offsetInCU: 0x30864, offset: 0x30864, size: 0x8, addend: 0x0, symName: __ZNSt3__123__libcpp_numeric_limitsImLb1EE3maxB8ue170006Ev, symObjAddr: 0x614C, symBinAddr: 0x10000B598, symSize: 0x8 }
  - { offsetInCU: 0x30878, offset: 0x30878, size: 0x8, addend: 0x0, symName: __ZNSt12length_errorC1B8ue170006EPKc, symObjAddr: 0x61B8, symBinAddr: 0x10000B604, symSize: 0x34 }
  - { offsetInCU: 0x308B0, offset: 0x308B0, size: 0x8, addend: 0x0, symName: __ZNSt12length_errorC2B8ue170006EPKc, symObjAddr: 0x61EC, symBinAddr: 0x10000B638, symSize: 0x4C }
  - { offsetInCU: 0x308E8, offset: 0x308E8, size: 0x8, addend: 0x0, symName: __ZNSt3__19allocatorIcE8allocateB8ue170006Em, symObjAddr: 0x6238, symBinAddr: 0x10000B684, symSize: 0x58 }
  - { offsetInCU: 0x3091C, offset: 0x3091C, size: 0x8, addend: 0x0, symName: __ZNSt3__112basic_stringIcNS_11char_traitsIcEENS_9allocatorIcEEE10__align_itB8ue170006ILm16EEEmm, symObjAddr: 0x6374, symBinAddr: 0x10000B7C0, symSize: 0x1C }
  - { offsetInCU: 0x3094A, offset: 0x3094A, size: 0x8, addend: 0x0, symName: __ZNKSt3__112basic_stringIcNS_11char_traitsIcEENS_9allocatorIcEEE6lengthB8ue170006Ev, symObjAddr: 0x6390, symBinAddr: 0x10000B7DC, symSize: 0x24 }
  - { offsetInCU: 0x3098D, offset: 0x3098D, size: 0x8, addend: 0x0, symName: __ZNSt3__110lock_guardINS_5mutexEEC1B8ue170006ERS1_, symObjAddr: 0x63B4, symBinAddr: 0x10000B800, symSize: 0x34 }
  - { offsetInCU: 0x309C5, offset: 0x309C5, size: 0x8, addend: 0x0, symName: __ZNSt3__15queueINS_4pairINS_12basic_stringIcNS_11char_traitsIcEENS_9allocatorIcEEEES7_EENS_5dequeIS8_NS5_IS8_EEEEE4pushB8ue170006ERKS8_, symObjAddr: 0x63E8, symBinAddr: 0x10000B834, symSize: 0x2C }
  - { offsetInCU: 0x309FA, offset: 0x309FA, size: 0x8, addend: 0x0, symName: __ZNSt3__110lock_guardINS_5mutexEED1B8ue170006Ev, symObjAddr: 0x6414, symBinAddr: 0x10000B860, symSize: 0x2C }
  - { offsetInCU: 0x30A24, offset: 0x30A24, size: 0x8, addend: 0x0, symName: __ZNSt3__110lock_guardINS_5mutexEEC2B8ue170006ERS1_, symObjAddr: 0x6440, symBinAddr: 0x10000B88C, symSize: 0x3C }
  - { offsetInCU: 0x30A5C, offset: 0x30A5C, size: 0x8, addend: 0x0, symName: __ZNSt3__15dequeINS_4pairINS_12basic_stringIcNS_11char_traitsIcEENS_9allocatorIcEEEES7_EENS5_IS8_EEE9push_backERKS8_, symObjAddr: 0x647C, symBinAddr: 0x10000B8C8, symSize: 0xAC }
  - { offsetInCU: 0x30AA2, offset: 0x30AA2, size: 0x8, addend: 0x0, symName: __ZNKSt3__15dequeINS_4pairINS_12basic_stringIcNS_11char_traitsIcEENS_9allocatorIcEEEES7_EENS5_IS8_EEE12__back_spareB8ue170006Ev, symObjAddr: 0x6528, symBinAddr: 0x10000B974, symSize: 0x54 }
  - { offsetInCU: 0x30AC8, offset: 0x30AC8, size: 0x8, addend: 0x0, symName: __ZNSt3__15dequeINS_4pairINS_12basic_stringIcNS_11char_traitsIcEENS_9allocatorIcEEEES7_EENS5_IS8_EEE19__add_back_capacityEv, symObjAddr: 0x657C, symBinAddr: 0x10000B9C8, symSize: 0x34C }
  - { offsetInCU: 0x30B7D, offset: 0x30B7D, size: 0x8, addend: 0x0, symName: __ZNKSt3__15dequeINS_4pairINS_12basic_stringIcNS_11char_traitsIcEENS_9allocatorIcEEEES7_EENS5_IS8_EEE24__annotate_increase_backB8ue170006Em, symObjAddr: 0x68C8, symBinAddr: 0x10000BD14, symSize: 0x7C }
  - { offsetInCU: 0x30BB2, offset: 0x30BB2, size: 0x8, addend: 0x0, symName: __ZNSt3__116allocator_traitsINS_9allocatorINS_4pairINS_12basic_stringIcNS_11char_traitsIcEENS1_IcEEEES7_EEEEE9constructB8ue170006IS8_JRKS8_EvEEvRS9_PT_DpOT0_, symObjAddr: 0x6944, symBinAddr: 0x10000BD90, symSize: 0x34 }
  - { offsetInCU: 0x30C09, offset: 0x30C09, size: 0x8, addend: 0x0, symName: __ZNKSt3__15dequeINS_4pairINS_12basic_stringIcNS_11char_traitsIcEENS_9allocatorIcEEEES7_EENS5_IS8_EEE10__capacityB8ue170006Ev, symObjAddr: 0x6978, symBinAddr: 0x10000BDC4, symSize: 0x64 }
  - { offsetInCU: 0x30C2F, offset: 0x30C2F, size: 0x8, addend: 0x0, symName: __ZNKSt3__15dequeINS_4pairINS_12basic_stringIcNS_11char_traitsIcEENS_9allocatorIcEEEES7_EENS5_IS8_EEE13__front_spareB8ue170006Ev, symObjAddr: 0x69DC, symBinAddr: 0x10000BE28, symSize: 0x18 }
  - { offsetInCU: 0x30C55, offset: 0x30C55, size: 0x8, addend: 0x0, symName: __ZNSt3__114__split_bufferIPNS_4pairINS_12basic_stringIcNS_11char_traitsIcEENS_9allocatorIcEEEES7_EENS5_IS9_EEE9push_backB8ue170006ERKS9_, symObjAddr: 0x69F4, symBinAddr: 0x10000BE40, symSize: 0x260 }
  - { offsetInCU: 0x30CCD, offset: 0x30CCD, size: 0x8, addend: 0x0, symName: __ZNKSt3__114__split_bufferIPNS_4pairINS_12basic_stringIcNS_11char_traitsIcEENS_9allocatorIcEEEES7_EENS5_IS9_EEE12__back_spareB8ue170006Ev, symObjAddr: 0x6C54, symBinAddr: 0x10000C0A0, symSize: 0x40 }
  - { offsetInCU: 0x30CF3, offset: 0x30CF3, size: 0x8, addend: 0x0, symName: __ZNSt3__114__split_bufferIPNS_4pairINS_12basic_stringIcNS_11char_traitsIcEENS_9allocatorIcEEEES7_EENS5_IS9_EEE9push_backEOS9_, symObjAddr: 0x6C94, symBinAddr: 0x10000C0E0, symSize: 0x260 }
  - { offsetInCU: 0x30D6B, offset: 0x30D6B, size: 0x8, addend: 0x0, symName: __ZNSt3__116allocator_traitsINS_9allocatorINS_4pairINS_12basic_stringIcNS_11char_traitsIcEENS1_IcEEEES7_EEEEE8allocateB8ue170006ERS9_m, symObjAddr: 0x6EF4, symBinAddr: 0x10000C340, symSize: 0x2C }
  - { offsetInCU: 0x30D9E, offset: 0x30D9E, size: 0x8, addend: 0x0, symName: __ZNSt3__114__split_bufferIPNS_4pairINS_12basic_stringIcNS_11char_traitsIcEENS_9allocatorIcEEEES7_EENS5_IS9_EEE10push_frontEOS9_, symObjAddr: 0x6F20, symBinAddr: 0x10000C36C, symSize: 0x25C }
  - { offsetInCU: 0x30E16, offset: 0x30E16, size: 0x8, addend: 0x0, symName: __ZNSt3__114__split_bufferIPNS_4pairINS_12basic_stringIcNS_11char_traitsIcEENS_9allocatorIcEEEES7_EERNS5_IS9_EEEC1EmmSB_, symObjAddr: 0x71A8, symBinAddr: 0x10000C5F4, symSize: 0x44 }
  - { offsetInCU: 0x30E72, offset: 0x30E72, size: 0x8, addend: 0x0, symName: __ZNSt3__122__allocator_destructorINS_9allocatorINS_4pairINS_12basic_stringIcNS_11char_traitsIcEENS1_IcEEEES7_EEEEEC1B8ue170006ERS9_m, symObjAddr: 0x71EC, symBinAddr: 0x10000C638, symSize: 0x3C }
  - { offsetInCU: 0x30F48, offset: 0x30F48, size: 0x8, addend: 0x0, symName: __ZNSt3__110unique_ptrIPNS_4pairINS_12basic_stringIcNS_11char_traitsIcEENS_9allocatorIcEEEES7_EENS_22__allocator_destructorINS5_IS8_EEEEEC1B8ue170006ILb1EvEES9_NS_16__dependent_typeINS_27__unique_ptr_deleter_sfinaeISC_EEXT_EE20__good_rval_ref_typeE, symObjAddr: 0x7228, symBinAddr: 0x10000C674, symSize: 0x3C }
  - { offsetInCU: 0x30F99, offset: 0x30F99, size: 0x8, addend: 0x0, symName: __ZNSt3__114__split_bufferIPNS_4pairINS_12basic_stringIcNS_11char_traitsIcEENS_9allocatorIcEEEES7_EERNS5_IS9_EEE9push_backEOS9_, symObjAddr: 0x7264, symBinAddr: 0x10000C6B0, symSize: 0x260 }
  - { offsetInCU: 0x31011, offset: 0x31011, size: 0x8, addend: 0x0, symName: __ZNKSt3__110unique_ptrIPNS_4pairINS_12basic_stringIcNS_11char_traitsIcEENS_9allocatorIcEEEES7_EENS_22__allocator_destructorINS5_IS8_EEEEE3getB8ue170006Ev, symObjAddr: 0x74C4, symBinAddr: 0x10000C910, symSize: 0x28 }
  - { offsetInCU: 0x31037, offset: 0x31037, size: 0x8, addend: 0x0, symName: __ZNSt3__110unique_ptrIPNS_4pairINS_12basic_stringIcNS_11char_traitsIcEENS_9allocatorIcEEEES7_EENS_22__allocator_destructorINS5_IS8_EEEEE7releaseB8ue170006Ev, symObjAddr: 0x74EC, symBinAddr: 0x10000C938, symSize: 0x44 }
  - { offsetInCU: 0x3106C, offset: 0x3106C, size: 0x8, addend: 0x0, symName: __ZNSt3__114__split_bufferIPNS_4pairINS_12basic_stringIcNS_11char_traitsIcEENS_9allocatorIcEEEES7_EERNS5_IS9_EEE10push_frontERKS9_, symObjAddr: 0x7530, symBinAddr: 0x10000C97C, symSize: 0x25C }
  - { offsetInCU: 0x310E4, offset: 0x310E4, size: 0x8, addend: 0x0, symName: __ZNSt3__114__split_bufferIPNS_4pairINS_12basic_stringIcNS_11char_traitsIcEENS_9allocatorIcEEEES7_EENS5_IS9_EEE9__end_capB8ue170006Ev, symObjAddr: 0x77C8, symBinAddr: 0x10000CC14, symSize: 0x28 }
  - { offsetInCU: 0x3110A, offset: 0x3110A, size: 0x8, addend: 0x0, symName: __ZNSt3__114__split_bufferIPNS_4pairINS_12basic_stringIcNS_11char_traitsIcEENS_9allocatorIcEEEES7_EERNS5_IS9_EEE9__end_capB8ue170006Ev, symObjAddr: 0x77F0, symBinAddr: 0x10000CC3C, symSize: 0x28 }
  - { offsetInCU: 0x31130, offset: 0x31130, size: 0x8, addend: 0x0, symName: __ZNSt3__110unique_ptrIPNS_4pairINS_12basic_stringIcNS_11char_traitsIcEENS_9allocatorIcEEEES7_EENS_22__allocator_destructorINS5_IS8_EEEEED1B8ue170006Ev, symObjAddr: 0x7818, symBinAddr: 0x10000CC64, symSize: 0x2C }
  - { offsetInCU: 0x3115A, offset: 0x3115A, size: 0x8, addend: 0x0, symName: __ZNSt3__114__split_bufferIPNS_4pairINS_12basic_stringIcNS_11char_traitsIcEENS_9allocatorIcEEEES7_EERNS5_IS9_EEED1Ev, symObjAddr: 0x7844, symBinAddr: 0x10000CC90, symSize: 0x2C }
  - { offsetInCU: 0x31186, offset: 0x31186, size: 0x8, addend: 0x0, symName: __ZNSt3__114__split_bufferIPNS_4pairINS_12basic_stringIcNS_11char_traitsIcEENS_9allocatorIcEEEES7_EERNS5_IS9_EEE18__construct_at_endINS_13move_iteratorIPS9_EEEENS_9enable_ifIXsr31__has_forward_iterator_categoryIT_EE5valueEvE4typeESI_SI_, symObjAddr: 0x78B0, symBinAddr: 0x10000CCFC, symSize: 0x60 }
  - { offsetInCU: 0x311D3, offset: 0x311D3, size: 0x8, addend: 0x0, symName: __ZNSt3__113move_iteratorIPPNS_4pairINS_12basic_stringIcNS_11char_traitsIcEENS_9allocatorIcEEEES7_EEEC1B8ue170006ESA_, symObjAddr: 0x7910, symBinAddr: 0x10000CD5C, symSize: 0x34 }
  - { offsetInCU: 0x3120B, offset: 0x3120B, size: 0x8, addend: 0x0, symName: __ZNSt3__116allocator_traitsINS_9allocatorIPNS_4pairINS_12basic_stringIcNS_11char_traitsIcEENS1_IcEEEES7_EEEEE9constructB8ue170006IS9_JRKS9_EvEEvRSA_PT_DpOT0_, symObjAddr: 0x7944, symBinAddr: 0x10000CD90, symSize: 0x34 }
  - { offsetInCU: 0x3128A, offset: 0x3128A, size: 0x8, addend: 0x0, symName: __ZNKSt3__114__move_trivialclB8ue170006IPNS_4pairINS_12basic_stringIcNS_11char_traitsIcEENS_9allocatorIcEEEES8_EESA_Li0EEENS2_IPT_PT0_EESC_SC_SE_, symObjAddr: 0x7B14, symBinAddr: 0x10000CF60, symSize: 0x48 }
  - { offsetInCU: 0x312F8, offset: 0x312F8, size: 0x8, addend: 0x0, symName: __ZNSt3__14pairIPPNS0_INS_12basic_stringIcNS_11char_traitsIcEENS_9allocatorIcEEEES6_EES9_EC1B8ue170006IRS9_S9_LPv0EEEOT_OT0_, symObjAddr: 0x7D3C, symBinAddr: 0x10000D188, symSize: 0x3C }
  - { offsetInCU: 0x31356, offset: 0x31356, size: 0x8, addend: 0x0, symName: __ZNSt3__14pairIPPNS0_INS_12basic_stringIcNS_11char_traitsIcEENS_9allocatorIcEEEES6_EES9_EC2B8ue170006IRS9_S9_LPv0EEEOT_OT0_, symObjAddr: 0x7D78, symBinAddr: 0x10000D1C4, symSize: 0x34 }
  - { offsetInCU: 0x313B4, offset: 0x313B4, size: 0x8, addend: 0x0, symName: __ZNSt3__118__unwrap_iter_implIPPNS_4pairINS_12basic_stringIcNS_11char_traitsIcEENS_9allocatorIcEEEES7_EELb1EE8__unwrapB8ue170006ESA_, symObjAddr: 0x7DAC, symBinAddr: 0x10000D1F8, symSize: 0x24 }
  - { offsetInCU: 0x313D7, offset: 0x313D7, size: 0x8, addend: 0x0, symName: __ZNSt3__14pairIPPNS0_INS_12basic_stringIcNS_11char_traitsIcEENS_9allocatorIcEEEES6_EES9_EC1B8ue170006IS9_S9_LPv0EEEOT_OT0_, symObjAddr: 0x7DD0, symBinAddr: 0x10000D21C, symSize: 0x3C }
  - { offsetInCU: 0x31435, offset: 0x31435, size: 0x8, addend: 0x0, symName: __ZNSt3__14pairIPPNS0_INS_12basic_stringIcNS_11char_traitsIcEENS_9allocatorIcEEEES6_EES9_EC2B8ue170006IS9_S9_LPv0EEEOT_OT0_, symObjAddr: 0x7E0C, symBinAddr: 0x10000D258, symSize: 0x34 }
  - { offsetInCU: 0x31493, offset: 0x31493, size: 0x8, addend: 0x0, symName: __ZNSt3__118__unwrap_iter_implIPPNS_4pairINS_12basic_stringIcNS_11char_traitsIcEENS_9allocatorIcEEEES7_EELb1EE8__rewrapB8ue170006ESA_SA_, symObjAddr: 0x7E40, symBinAddr: 0x10000D28C, symSize: 0x50 }
  - { offsetInCU: 0x314C4, offset: 0x314C4, size: 0x8, addend: 0x0, symName: __ZNSt3__114__split_bufferIPNS_4pairINS_12basic_stringIcNS_11char_traitsIcEENS_9allocatorIcEEEES7_EERNS5_IS9_EEE28__construct_at_end_with_sizeINS_13move_iteratorIPS9_EEEEvT_m, symObjAddr: 0x7E90, symBinAddr: 0x10000D2DC, symSize: 0xDC }
  - { offsetInCU: 0x3152C, offset: 0x3152C, size: 0x8, addend: 0x0, symName: __ZNSt3__114__split_bufferIPNS_4pairINS_12basic_stringIcNS_11char_traitsIcEENS_9allocatorIcEEEES7_EERNS5_IS9_EEE21_ConstructTransactionC1B8ue170006EPPS9_m, symObjAddr: 0x7FA8, symBinAddr: 0x10000D3F4, symSize: 0x3C }
  - { offsetInCU: 0x31572, offset: 0x31572, size: 0x8, addend: 0x0, symName: __ZNSt3__116allocator_traitsINS_9allocatorIPNS_4pairINS_12basic_stringIcNS_11char_traitsIcEENS1_IcEEEES7_EEEEE9constructB8ue170006IS9_JS9_EvEEvRSA_PT_DpOT0_, symObjAddr: 0x7FE4, symBinAddr: 0x10000D430, symSize: 0x34 }
  - { offsetInCU: 0x315C9, offset: 0x315C9, size: 0x8, addend: 0x0, symName: __ZNSt3__114__split_bufferIPNS_4pairINS_12basic_stringIcNS_11char_traitsIcEENS_9allocatorIcEEEES7_EERNS5_IS9_EEE7__allocB8ue170006Ev, symObjAddr: 0x8018, symBinAddr: 0x10000D464, symSize: 0x28 }
  - { offsetInCU: 0x315EF, offset: 0x315EF, size: 0x8, addend: 0x0, symName: __ZNKSt3__113move_iteratorIPPNS_4pairINS_12basic_stringIcNS_11char_traitsIcEENS_9allocatorIcEEEES7_EEEdeB8ue170006Ev, symObjAddr: 0x8040, symBinAddr: 0x10000D48C, symSize: 0x18 }
  - { offsetInCU: 0x31615, offset: 0x31615, size: 0x8, addend: 0x0, symName: __ZNSt3__113move_iteratorIPPNS_4pairINS_12basic_stringIcNS_11char_traitsIcEENS_9allocatorIcEEEES7_EEEppB8ue170006Ev, symObjAddr: 0x8058, symBinAddr: 0x10000D4A4, symSize: 0x20 }
  - { offsetInCU: 0x3163B, offset: 0x3163B, size: 0x8, addend: 0x0, symName: __ZNSt3__114__split_bufferIPNS_4pairINS_12basic_stringIcNS_11char_traitsIcEENS_9allocatorIcEEEES7_EERNS5_IS9_EEE21_ConstructTransactionD1B8ue170006Ev, symObjAddr: 0x8078, symBinAddr: 0x10000D4C4, symSize: 0x2C }
  - { offsetInCU: 0x31665, offset: 0x31665, size: 0x8, addend: 0x0, symName: __ZNSt3__114__split_bufferIPNS_4pairINS_12basic_stringIcNS_11char_traitsIcEENS_9allocatorIcEEEES7_EERNS5_IS9_EEE21_ConstructTransactionC2B8ue170006EPPS9_m, symObjAddr: 0x80A4, symBinAddr: 0x10000D4F0, symSize: 0x44 }
  - { offsetInCU: 0x316AB, offset: 0x316AB, size: 0x8, addend: 0x0, symName: __ZNSt3__19allocatorIPNS_4pairINS_12basic_stringIcNS_11char_traitsIcEENS0_IcEEEES6_EEE9constructB8ue170006IS8_JS8_EEEvPT_DpOT0_, symObjAddr: 0x80E8, symBinAddr: 0x10000D534, symSize: 0x28 }
  - { offsetInCU: 0x31701, offset: 0x31701, size: 0x8, addend: 0x0, symName: __ZNSt3__117__compressed_pairIPPNS_4pairINS_12basic_stringIcNS_11char_traitsIcEENS_9allocatorIcEEEES7_EERNS5_IS9_EEE6secondB8ue170006Ev, symObjAddr: 0x8110, symBinAddr: 0x10000D55C, symSize: 0x28 }
  - { offsetInCU: 0x31727, offset: 0x31727, size: 0x8, addend: 0x0, symName: __ZNSt3__122__compressed_pair_elemIRNS_9allocatorIPNS_4pairINS_12basic_stringIcNS_11char_traitsIcEENS1_IcEEEES7_EEEELi1ELb0EE5__getB8ue170006Ev, symObjAddr: 0x8138, symBinAddr: 0x10000D584, symSize: 0x18 }
  - { offsetInCU: 0x3174D, offset: 0x3174D, size: 0x8, addend: 0x0, symName: __ZNSt3__114__split_bufferIPNS_4pairINS_12basic_stringIcNS_11char_traitsIcEENS_9allocatorIcEEEES7_EERNS5_IS9_EEE21_ConstructTransactionD2B8ue170006Ev, symObjAddr: 0x8150, symBinAddr: 0x10000D59C, symSize: 0x20 }
  - { offsetInCU: 0x31777, offset: 0x31777, size: 0x8, addend: 0x0, symName: __ZNKSt3__113move_iteratorIPPNS_4pairINS_12basic_stringIcNS_11char_traitsIcEENS_9allocatorIcEEEES7_EEE4baseB8ue170006Ev, symObjAddr: 0x81E8, symBinAddr: 0x10000D634, symSize: 0x18 }
  - { offsetInCU: 0x3179D, offset: 0x3179D, size: 0x8, addend: 0x0, symName: __ZNSt3__113move_iteratorIPPNS_4pairINS_12basic_stringIcNS_11char_traitsIcEENS_9allocatorIcEEEES7_EEEC2B8ue170006ESA_, symObjAddr: 0x8200, symBinAddr: 0x10000D64C, symSize: 0x20 }
  - { offsetInCU: 0x317D5, offset: 0x317D5, size: 0x8, addend: 0x0, symName: __ZNSt3__19allocatorIPNS_4pairINS_12basic_stringIcNS_11char_traitsIcEENS0_IcEEEES6_EEE9constructB8ue170006IS8_JRKS8_EEEvPT_DpOT0_, symObjAddr: 0x8220, symBinAddr: 0x10000D66C, symSize: 0x28 }
  - { offsetInCU: 0x3182B, offset: 0x3182B, size: 0x8, addend: 0x0, symName: __ZNSt3__19allocatorINS_4pairINS_12basic_stringIcNS_11char_traitsIcEENS0_IcEEEES6_EEE8allocateB8ue170006Em, symObjAddr: 0x8248, symBinAddr: 0x10000D694, symSize: 0x5C }
  - { offsetInCU: 0x3186A, offset: 0x3186A, size: 0x8, addend: 0x0, symName: __ZNSt3__116allocator_traitsINS_9allocatorINS_4pairINS_12basic_stringIcNS_11char_traitsIcEENS1_IcEEEES7_EEEEE8max_sizeB8ue170006IS9_vEEmRKS9_, symObjAddr: 0x82A4, symBinAddr: 0x10000D6F0, symSize: 0x24 }
  - { offsetInCU: 0x31898, offset: 0x31898, size: 0x8, addend: 0x0, symName: __ZNKSt3__19allocatorINS_4pairINS_12basic_stringIcNS_11char_traitsIcEENS0_IcEEEES6_EEE8max_sizeB8ue170006Ev, symObjAddr: 0x82C8, symBinAddr: 0x10000D714, symSize: 0x18 }
  - { offsetInCU: 0x318C9, offset: 0x318C9, size: 0x8, addend: 0x0, symName: __ZNKSt3__123__move_backward_trivialclB8ue170006IPNS_4pairINS_12basic_stringIcNS_11char_traitsIcEENS_9allocatorIcEEEES8_EESA_Li0EEENS2_IPT_PT0_EESC_SC_SE_, symObjAddr: 0x845C, symBinAddr: 0x10000D8A8, symSize: 0x48 }
  - { offsetInCU: 0x31931, offset: 0x31931, size: 0x8, addend: 0x0, symName: __ZNSt3__14pairIPPNS0_INS_12basic_stringIcNS_11char_traitsIcEENS_9allocatorIcEEEES6_EES9_EC1B8ue170006IRS9_SC_LPv0EEEOT_OT0_, symObjAddr: 0x856C, symBinAddr: 0x10000D9B8, symSize: 0x3C }
  - { offsetInCU: 0x3198F, offset: 0x3198F, size: 0x8, addend: 0x0, symName: __ZNSt3__14pairIPPNS0_INS_12basic_stringIcNS_11char_traitsIcEENS_9allocatorIcEEEES6_EES9_EC2B8ue170006IRS9_SC_LPv0EEEOT_OT0_, symObjAddr: 0x85A8, symBinAddr: 0x10000D9F4, symSize: 0x34 }
  - { offsetInCU: 0x319ED, offset: 0x319ED, size: 0x8, addend: 0x0, symName: __ZNKSt3__16__lessIvvEclB8ue170006ImmEEbRKT_RKT0_, symObjAddr: 0x8630, symBinAddr: 0x10000DA7C, symSize: 0x34 }
  - { offsetInCU: 0x31A41, offset: 0x31A41, size: 0x8, addend: 0x0, symName: __ZNSt3__114__split_bufferIPNS_4pairINS_12basic_stringIcNS_11char_traitsIcEENS_9allocatorIcEEEES7_EERNS5_IS9_EEEC2EmmSB_, symObjAddr: 0x8664, symBinAddr: 0x10000DAB0, symSize: 0xD4 }
  - { offsetInCU: 0x31AB4, offset: 0x31AB4, size: 0x8, addend: 0x0, symName: __ZNSt3__117__compressed_pairIPPNS_4pairINS_12basic_stringIcNS_11char_traitsIcEENS_9allocatorIcEEEES7_EERNS5_IS9_EEEC1B8ue170006IDnSC_EEOT_OT0_, symObjAddr: 0x8738, symBinAddr: 0x10000DB84, symSize: 0x3C }
  - { offsetInCU: 0x31B0C, offset: 0x31B0C, size: 0x8, addend: 0x0, symName: __ZNSt3__117__compressed_pairIPPNS_4pairINS_12basic_stringIcNS_11char_traitsIcEENS_9allocatorIcEEEES7_EERNS5_IS9_EEEC2B8ue170006IDnSC_EEOT_OT0_, symObjAddr: 0x87B4, symBinAddr: 0x10000DC00, symSize: 0x48 }
  - { offsetInCU: 0x31B64, offset: 0x31B64, size: 0x8, addend: 0x0, symName: __ZNSt3__122__compressed_pair_elemIRNS_9allocatorIPNS_4pairINS_12basic_stringIcNS_11char_traitsIcEENS1_IcEEEES7_EEEELi1ELb0EEC2B8ue170006ISB_vEEOT_, symObjAddr: 0x87FC, symBinAddr: 0x10000DC48, symSize: 0x20 }
  - { offsetInCU: 0x31BA6, offset: 0x31BA6, size: 0x8, addend: 0x0, symName: __ZNSt3__19allocatorIPNS_4pairINS_12basic_stringIcNS_11char_traitsIcEENS0_IcEEEES6_EEE8allocateB8ue170006Em, symObjAddr: 0x881C, symBinAddr: 0x10000DC68, symSize: 0x58 }
  - { offsetInCU: 0x31BE5, offset: 0x31BE5, size: 0x8, addend: 0x0, symName: __ZNSt3__116allocator_traitsINS_9allocatorIPNS_4pairINS_12basic_stringIcNS_11char_traitsIcEENS1_IcEEEES7_EEEEE8max_sizeB8ue170006ISA_vEEmRKSA_, symObjAddr: 0x8874, symBinAddr: 0x10000DCC0, symSize: 0x24 }
  - { offsetInCU: 0x31C13, offset: 0x31C13, size: 0x8, addend: 0x0, symName: __ZNKSt3__19allocatorIPNS_4pairINS_12basic_stringIcNS_11char_traitsIcEENS0_IcEEEES6_EEE8max_sizeB8ue170006Ev, symObjAddr: 0x8898, symBinAddr: 0x10000DCE4, symSize: 0x14 }
  - { offsetInCU: 0x31C39, offset: 0x31C39, size: 0x8, addend: 0x0, symName: __ZNSt3__122__allocator_destructorINS_9allocatorINS_4pairINS_12basic_stringIcNS_11char_traitsIcEENS1_IcEEEES7_EEEEEC2B8ue170006ERS9_m, symObjAddr: 0x88AC, symBinAddr: 0x10000DCF8, symSize: 0x2C }
  - { offsetInCU: 0x31C7F, offset: 0x31C7F, size: 0x8, addend: 0x0, symName: __ZNSt3__110unique_ptrIPNS_4pairINS_12basic_stringIcNS_11char_traitsIcEENS_9allocatorIcEEEES7_EENS_22__allocator_destructorINS5_IS8_EEEEEC2B8ue170006ILb1EvEES9_NS_16__dependent_typeINS_27__unique_ptr_deleter_sfinaeISC_EEXT_EE20__good_rval_ref_typeE, symObjAddr: 0x88D8, symBinAddr: 0x10000DD24, symSize: 0x48 }
  - { offsetInCU: 0x31CD0, offset: 0x31CD0, size: 0x8, addend: 0x0, symName: __ZNSt3__117__compressed_pairIPNS_4pairINS_12basic_stringIcNS_11char_traitsIcEENS_9allocatorIcEEEES7_EENS_22__allocator_destructorINS5_IS8_EEEEEC1B8ue170006IRS9_SC_EEOT_OT0_, symObjAddr: 0x8920, symBinAddr: 0x10000DD6C, symSize: 0x3C }
  - { offsetInCU: 0x31D28, offset: 0x31D28, size: 0x8, addend: 0x0, symName: __ZNSt3__117__compressed_pairIPNS_4pairINS_12basic_stringIcNS_11char_traitsIcEENS_9allocatorIcEEEES7_EENS_22__allocator_destructorINS5_IS8_EEEEEC2B8ue170006IRS9_SC_EEOT_OT0_, symObjAddr: 0x895C, symBinAddr: 0x10000DDA8, symSize: 0x48 }
  - { offsetInCU: 0x31D80, offset: 0x31D80, size: 0x8, addend: 0x0, symName: __ZNSt3__122__compressed_pair_elemIPNS_4pairINS_12basic_stringIcNS_11char_traitsIcEENS_9allocatorIcEEEES7_EELi0ELb0EEC2B8ue170006IRS9_vEEOT_, symObjAddr: 0x89A4, symBinAddr: 0x10000DDF0, symSize: 0x24 }
  - { offsetInCU: 0x31DC2, offset: 0x31DC2, size: 0x8, addend: 0x0, symName: __ZNSt3__122__compressed_pair_elemINS_22__allocator_destructorINS_9allocatorINS_4pairINS_12basic_stringIcNS_11char_traitsIcEENS2_IcEEEES8_EEEEEELi1ELb0EEC2B8ue170006ISB_vEEOT_, symObjAddr: 0x89C8, symBinAddr: 0x10000DE14, symSize: 0x24 }
  - { offsetInCU: 0x31E04, offset: 0x31E04, size: 0x8, addend: 0x0, symName: __ZNKSt3__117__compressed_pairIPNS_4pairINS_12basic_stringIcNS_11char_traitsIcEENS_9allocatorIcEEEES7_EENS_22__allocator_destructorINS5_IS8_EEEEE5firstB8ue170006Ev, symObjAddr: 0x89EC, symBinAddr: 0x10000DE38, symSize: 0x24 }
  - { offsetInCU: 0x31E2A, offset: 0x31E2A, size: 0x8, addend: 0x0, symName: __ZNKSt3__122__compressed_pair_elemIPNS_4pairINS_12basic_stringIcNS_11char_traitsIcEENS_9allocatorIcEEEES7_EELi0ELb0EE5__getB8ue170006Ev, symObjAddr: 0x8A10, symBinAddr: 0x10000DE5C, symSize: 0x14 }
  - { offsetInCU: 0x31E50, offset: 0x31E50, size: 0x8, addend: 0x0, symName: __ZNSt3__117__compressed_pairIPNS_4pairINS_12basic_stringIcNS_11char_traitsIcEENS_9allocatorIcEEEES7_EENS_22__allocator_destructorINS5_IS8_EEEEE5firstB8ue170006Ev, symObjAddr: 0x8A24, symBinAddr: 0x10000DE70, symSize: 0x24 }
  - { offsetInCU: 0x31E76, offset: 0x31E76, size: 0x8, addend: 0x0, symName: __ZNSt3__122__compressed_pair_elemIPNS_4pairINS_12basic_stringIcNS_11char_traitsIcEENS_9allocatorIcEEEES7_EELi0ELb0EE5__getB8ue170006Ev, symObjAddr: 0x8A48, symBinAddr: 0x10000DE94, symSize: 0x14 }
  - { offsetInCU: 0x31E9C, offset: 0x31E9C, size: 0x8, addend: 0x0, symName: __ZNSt3__117__compressed_pairIPPNS_4pairINS_12basic_stringIcNS_11char_traitsIcEENS_9allocatorIcEEEES7_EENS5_IS9_EEE5firstB8ue170006Ev, symObjAddr: 0x8A5C, symBinAddr: 0x10000DEA8, symSize: 0x24 }
  - { offsetInCU: 0x31EC2, offset: 0x31EC2, size: 0x8, addend: 0x0, symName: __ZNSt3__122__compressed_pair_elemIPPNS_4pairINS_12basic_stringIcNS_11char_traitsIcEENS_9allocatorIcEEEES7_EELi0ELb0EE5__getB8ue170006Ev, symObjAddr: 0x8A80, symBinAddr: 0x10000DECC, symSize: 0x14 }
  - { offsetInCU: 0x31EE8, offset: 0x31EE8, size: 0x8, addend: 0x0, symName: __ZNSt3__117__compressed_pairIPPNS_4pairINS_12basic_stringIcNS_11char_traitsIcEENS_9allocatorIcEEEES7_EERNS5_IS9_EEE5firstB8ue170006Ev, symObjAddr: 0x8A94, symBinAddr: 0x10000DEE0, symSize: 0x24 }
  - { offsetInCU: 0x31F0E, offset: 0x31F0E, size: 0x8, addend: 0x0, symName: __ZNSt3__110unique_ptrIPNS_4pairINS_12basic_stringIcNS_11char_traitsIcEENS_9allocatorIcEEEES7_EENS_22__allocator_destructorINS5_IS8_EEEEED2B8ue170006Ev, symObjAddr: 0x8AB8, symBinAddr: 0x10000DF04, symSize: 0x30 }
  - { offsetInCU: 0x31F38, offset: 0x31F38, size: 0x8, addend: 0x0, symName: __ZNSt3__110unique_ptrIPNS_4pairINS_12basic_stringIcNS_11char_traitsIcEENS_9allocatorIcEEEES7_EENS_22__allocator_destructorINS5_IS8_EEEEE5resetB8ue170006ES9_, symObjAddr: 0x8AE8, symBinAddr: 0x10000DF34, symSize: 0x78 }
  - { offsetInCU: 0x31F7C, offset: 0x31F7C, size: 0x8, addend: 0x0, symName: __ZNSt3__117__compressed_pairIPNS_4pairINS_12basic_stringIcNS_11char_traitsIcEENS_9allocatorIcEEEES7_EENS_22__allocator_destructorINS5_IS8_EEEEE6secondB8ue170006Ev, symObjAddr: 0x8B60, symBinAddr: 0x10000DFAC, symSize: 0x28 }
  - { offsetInCU: 0x31FA2, offset: 0x31FA2, size: 0x8, addend: 0x0, symName: __ZNSt3__122__allocator_destructorINS_9allocatorINS_4pairINS_12basic_stringIcNS_11char_traitsIcEENS1_IcEEEES7_EEEEEclB8ue170006EPS8_, symObjAddr: 0x8B88, symBinAddr: 0x10000DFD4, symSize: 0x34 }
  - { offsetInCU: 0x31FD6, offset: 0x31FD6, size: 0x8, addend: 0x0, symName: __ZNSt3__122__compressed_pair_elemINS_22__allocator_destructorINS_9allocatorINS_4pairINS_12basic_stringIcNS_11char_traitsIcEENS2_IcEEEES8_EEEEEELi1ELb0EE5__getB8ue170006Ev, symObjAddr: 0x8BBC, symBinAddr: 0x10000E008, symSize: 0x14 }
  - { offsetInCU: 0x31FFC, offset: 0x31FFC, size: 0x8, addend: 0x0, symName: __ZNSt3__114__split_bufferIPNS_4pairINS_12basic_stringIcNS_11char_traitsIcEENS_9allocatorIcEEEES7_EERNS5_IS9_EEED2Ev, symObjAddr: 0x8BD0, symBinAddr: 0x10000E01C, symSize: 0x8C }
  - { offsetInCU: 0x32028, offset: 0x32028, size: 0x8, addend: 0x0, symName: __ZNSt3__114__split_bufferIPNS_4pairINS_12basic_stringIcNS_11char_traitsIcEENS_9allocatorIcEEEES7_EERNS5_IS9_EEE5clearB8ue170006Ev, symObjAddr: 0x8C5C, symBinAddr: 0x10000E0A8, symSize: 0x28 }
  - { offsetInCU: 0x3204E, offset: 0x3204E, size: 0x8, addend: 0x0, symName: __ZNKSt3__114__split_bufferIPNS_4pairINS_12basic_stringIcNS_11char_traitsIcEENS_9allocatorIcEEEES7_EERNS5_IS9_EEE8capacityB8ue170006Ev, symObjAddr: 0x8C84, symBinAddr: 0x10000E0D0, symSize: 0x40 }
  - { offsetInCU: 0x32074, offset: 0x32074, size: 0x8, addend: 0x0, symName: __ZNSt3__114__split_bufferIPNS_4pairINS_12basic_stringIcNS_11char_traitsIcEENS_9allocatorIcEEEES7_EERNS5_IS9_EEE17__destruct_at_endB8ue170006EPS9_, symObjAddr: 0x8CC4, symBinAddr: 0x10000E110, symSize: 0x2C }
  - { offsetInCU: 0x320A8, offset: 0x320A8, size: 0x8, addend: 0x0, symName: __ZNSt3__114__split_bufferIPNS_4pairINS_12basic_stringIcNS_11char_traitsIcEENS_9allocatorIcEEEES7_EERNS5_IS9_EEE17__destruct_at_endB8ue170006EPS9_NS_17integral_constantIbLb0EEE, symObjAddr: 0x8CF0, symBinAddr: 0x10000E13C, symSize: 0x80 }
  - { offsetInCU: 0x320E8, offset: 0x320E8, size: 0x8, addend: 0x0, symName: __ZNKSt3__114__split_bufferIPNS_4pairINS_12basic_stringIcNS_11char_traitsIcEENS_9allocatorIcEEEES7_EERNS5_IS9_EEE9__end_capB8ue170006Ev, symObjAddr: 0x8D70, symBinAddr: 0x10000E1BC, symSize: 0x28 }
  - { offsetInCU: 0x3210E, offset: 0x3210E, size: 0x8, addend: 0x0, symName: __ZNKSt3__117__compressed_pairIPPNS_4pairINS_12basic_stringIcNS_11char_traitsIcEENS_9allocatorIcEEEES7_EERNS5_IS9_EEE5firstB8ue170006Ev, symObjAddr: 0x8D98, symBinAddr: 0x10000E1E4, symSize: 0x24 }
  - { offsetInCU: 0x32134, offset: 0x32134, size: 0x8, addend: 0x0, symName: __ZNSt3__19allocatorINS_4pairINS_12basic_stringIcNS_11char_traitsIcEENS0_IcEEEES6_EEE9constructB8ue170006IS7_JRKS7_EEEvPT_DpOT0_, symObjAddr: 0x8DBC, symBinAddr: 0x10000E208, symSize: 0x30 }
  - { offsetInCU: 0x3218A, offset: 0x3218A, size: 0x8, addend: 0x0, symName: __ZNSt3__14pairINS_12basic_stringIcNS_11char_traitsIcEENS_9allocatorIcEEEES6_EC1B8ue170006ERKS7_, symObjAddr: 0x8DEC, symBinAddr: 0x10000E238, symSize: 0x34 }
  - { offsetInCU: 0x321BE, offset: 0x321BE, size: 0x8, addend: 0x0, symName: __ZNSt3__14pairINS_12basic_stringIcNS_11char_traitsIcEENS_9allocatorIcEEEES6_EC2B8ue170006ERKS7_, symObjAddr: 0x8E20, symBinAddr: 0x10000E26C, symSize: 0x70 }
  - { offsetInCU: 0x321F2, offset: 0x321F2, size: 0x8, addend: 0x0, symName: __ZNSt3__110lock_guardINS_5mutexEED2B8ue170006Ev, symObjAddr: 0x8E90, symBinAddr: 0x10000E2DC, symSize: 0x30 }
  - { offsetInCU: 0x3221C, offset: 0x3221C, size: 0x8, addend: 0x0, symName: __ZNSt3__111unique_lockINS_5mutexEEC1B8ue170006ERS1_, symObjAddr: 0x8EC0, symBinAddr: 0x10000E30C, symSize: 0x34 }
  - { offsetInCU: 0x3225A, offset: 0x3225A, size: 0x8, addend: 0x0, symName: __ZNSt3__118condition_variable4waitIZN13BlockingQueueINS_4pairINS_12basic_stringIcNS_11char_traitsIcEENS_9allocatorIcEEEES9_EEE3popERSA_EUlvE_EEvRNS_11unique_lockINS_5mutexEEET_, symObjAddr: 0x8EF4, symBinAddr: 0x10000E340, symSize: 0x50 }
  - { offsetInCU: 0x322A5, offset: 0x322A5, size: 0x8, addend: 0x0, symName: __ZNKSt3__15queueINS_4pairINS_12basic_stringIcNS_11char_traitsIcEENS_9allocatorIcEEEES7_EENS_5dequeIS8_NS5_IS8_EEEEE5emptyB8ue170006Ev, symObjAddr: 0x8F44, symBinAddr: 0x10000E390, symSize: 0x28 }
  - { offsetInCU: 0x322CB, offset: 0x322CB, size: 0x8, addend: 0x0, symName: __ZNSt3__15queueINS_4pairINS_12basic_stringIcNS_11char_traitsIcEENS_9allocatorIcEEEES7_EENS_5dequeIS8_NS5_IS8_EEEEE5frontB8ue170006Ev, symObjAddr: 0x8F6C, symBinAddr: 0x10000E3B8, symSize: 0x24 }
  - { offsetInCU: 0x322F1, offset: 0x322F1, size: 0x8, addend: 0x0, symName: __ZNSt3__14pairINS_12basic_stringIcNS_11char_traitsIcEENS_9allocatorIcEEEES6_EaSB8ue170006ERKS7_, symObjAddr: 0x8F90, symBinAddr: 0x10000E3DC, symSize: 0x48 }
  - { offsetInCU: 0x32326, offset: 0x32326, size: 0x8, addend: 0x0, symName: __ZNSt3__15queueINS_4pairINS_12basic_stringIcNS_11char_traitsIcEENS_9allocatorIcEEEES7_EENS_5dequeIS8_NS5_IS8_EEEEE3popB8ue170006Ev, symObjAddr: 0x8FD8, symBinAddr: 0x10000E424, symSize: 0x24 }
  - { offsetInCU: 0x3234C, offset: 0x3234C, size: 0x8, addend: 0x0, symName: __ZNSt3__111unique_lockINS_5mutexEED1B8ue170006Ev, symObjAddr: 0x8FFC, symBinAddr: 0x10000E448, symSize: 0x2C }
  - { offsetInCU: 0x32376, offset: 0x32376, size: 0x8, addend: 0x0, symName: __ZNSt3__111unique_lockINS_5mutexEEC2B8ue170006ERS1_, symObjAddr: 0x9028, symBinAddr: 0x10000E474, symSize: 0x44 }
  - { offsetInCU: 0x323B9, offset: 0x323B9, size: 0x8, addend: 0x0, symName: __ZZN13BlockingQueueINSt3__14pairINS0_12basic_stringIcNS0_11char_traitsIcEENS0_9allocatorIcEEEES7_EEE3popERS8_ENKUlvE_clEv, symObjAddr: 0x906C, symBinAddr: 0x10000E4B8, symSize: 0x30 }
  - { offsetInCU: 0x323E3, offset: 0x323E3, size: 0x8, addend: 0x0, symName: __ZNSt3__15dequeINS_4pairINS_12basic_stringIcNS_11char_traitsIcEENS_9allocatorIcEEEES7_EENS5_IS8_EEE5frontEv, symObjAddr: 0x909C, symBinAddr: 0x10000E4E8, symSize: 0x58 }
  - { offsetInCU: 0x3240B, offset: 0x3240B, size: 0x8, addend: 0x0, symName: __ZNSt3__15dequeINS_4pairINS_12basic_stringIcNS_11char_traitsIcEENS_9allocatorIcEEEES7_EENS5_IS8_EEE9pop_frontEv, symObjAddr: 0x90F4, symBinAddr: 0x10000E540, symSize: 0xDC }
  - { offsetInCU: 0x32460, offset: 0x32460, size: 0x8, addend: 0x0, symName: __ZNKSt3__15dequeINS_4pairINS_12basic_stringIcNS_11char_traitsIcEENS_9allocatorIcEEEES7_EENS5_IS8_EEE23__annotate_shrink_frontB8ue170006Emm, symObjAddr: 0x91D0, symBinAddr: 0x10000E61C, symSize: 0x70 }
  - { offsetInCU: 0x324A4, offset: 0x324A4, size: 0x8, addend: 0x0, symName: __ZNSt3__15dequeINS_4pairINS_12basic_stringIcNS_11char_traitsIcEENS_9allocatorIcEEEES7_EENS5_IS8_EEE26__maybe_remove_front_spareB8ue170006Eb, symObjAddr: 0x9240, symBinAddr: 0x10000E68C, symSize: 0xEC }
  - { offsetInCU: 0x324D9, offset: 0x324D9, size: 0x8, addend: 0x0, symName: __ZNKSt3__15dequeINS_4pairINS_12basic_stringIcNS_11char_traitsIcEENS_9allocatorIcEEEES7_EENS5_IS8_EEE20__front_spare_blocksB8ue170006Ev, symObjAddr: 0x932C, symBinAddr: 0x10000E778, symSize: 0x2C }
  - { offsetInCU: 0x324FF, offset: 0x324FF, size: 0x8, addend: 0x0, symName: __ZNSt3__111unique_lockINS_5mutexEED2B8ue170006Ev, symObjAddr: 0x9358, symBinAddr: 0x10000E7A4, symSize: 0x4C }
  - { offsetInCU: 0x32585, offset: 0x32585, size: 0x8, addend: 0x0, symName: __ZNSt3__119basic_ostringstreamIcNS_11char_traitsIcEENS_9allocatorIcEEEC1B8ue170006Ev, symObjAddr: 0x93A4, symBinAddr: 0x10000E7F0, symSize: 0xEC }
  - { offsetInCU: 0x325AF, offset: 0x325AF, size: 0x8, addend: 0x0, symName: __ZNSt3__19basic_iosIcNS_11char_traitsIcEEE5imbueB8ue170006ERKNS_6localeE, symObjAddr: 0x9490, symBinAddr: 0x10000E8DC, symSize: 0x104 }
  - { offsetInCU: 0x325F6, offset: 0x325F6, size: 0x8, addend: 0x0, symName: __ZNKSt3__119basic_ostringstreamIcNS_11char_traitsIcEENS_9allocatorIcEEE3strB8ue170006Ev, symObjAddr: 0x9594, symBinAddr: 0x10000E9E0, symSize: 0x30 }
  - { offsetInCU: 0x32622, offset: 0x32622, size: 0x8, addend: 0x0, symName: __ZNSt3__119basic_ostringstreamIcNS_11char_traitsIcEENS_9allocatorIcEEED1Ev, symObjAddr: 0x95C4, symBinAddr: 0x10000EA10, symSize: 0x40 }
  - { offsetInCU: 0x3264F, offset: 0x3264F, size: 0x8, addend: 0x0, symName: __ZNSt3__19basic_iosIcNS_11char_traitsIcEEEC2B8ue170006Ev, symObjAddr: 0x9604, symBinAddr: 0x10000EA50, symSize: 0x44 }
  - { offsetInCU: 0x32679, offset: 0x32679, size: 0x8, addend: 0x0, symName: __ZNSt3__113basic_ostreamIcNS_11char_traitsIcEEEC2B8ue170006EPNS_15basic_streambufIcS2_EE, symObjAddr: 0x9648, symBinAddr: 0x10000EA94, symSize: 0x60 }
  - { offsetInCU: 0x326BE, offset: 0x326BE, size: 0x8, addend: 0x0, symName: __ZNSt3__115basic_stringbufIcNS_11char_traitsIcEENS_9allocatorIcEEEC1B8ue170006Ej, symObjAddr: 0x96A8, symBinAddr: 0x10000EAF4, symSize: 0x34 }
  - { offsetInCU: 0x326F7, offset: 0x326F7, size: 0x8, addend: 0x0, symName: __ZNSt3__18ios_baseC2B8ue170006Ev, symObjAddr: 0x96DC, symBinAddr: 0x10000EB28, symSize: 0x24 }
  - { offsetInCU: 0x32721, offset: 0x32721, size: 0x8, addend: 0x0, symName: __ZNSt3__19basic_iosIcNS_11char_traitsIcEEE4initB8ue170006EPNS_15basic_streambufIcS2_EE, symObjAddr: 0x9700, symBinAddr: 0x10000EB4C, symSize: 0x44 }
  - { offsetInCU: 0x32758, offset: 0x32758, size: 0x8, addend: 0x0, symName: __ZNSt3__115basic_stringbufIcNS_11char_traitsIcEENS_9allocatorIcEEEC2B8ue170006Ej, symObjAddr: 0x9744, symBinAddr: 0x10000EB90, symSize: 0x60 }
  - { offsetInCU: 0x32791, offset: 0x32791, size: 0x8, addend: 0x0, symName: __ZNSt3__115basic_streambufIcNS_11char_traitsIcEEE8pubimbueB8ue170006ERKNS_6localeE, symObjAddr: 0x97A4, symBinAddr: 0x10000EBF0, symSize: 0xA0 }
  - { offsetInCU: 0x327D4, offset: 0x327D4, size: 0x8, addend: 0x0, symName: __ZNSt3__119basic_ostringstreamIcNS_11char_traitsIcEENS_9allocatorIcEEED2Ev, symObjAddr: 0x9844, symBinAddr: 0x10000EC90, symSize: 0x64 }
  - { offsetInCU: 0x3280E, offset: 0x3280E, size: 0x8, addend: 0x0, symName: __ZTv0_n24_NSt3__119basic_ostringstreamIcNS_11char_traitsIcEENS_9allocatorIcEEED1Ev, symObjAddr: 0x98A8, symBinAddr: 0x10000ECF4, symSize: 0x28 }
  - { offsetInCU: 0x3282B, offset: 0x3282B, size: 0x8, addend: 0x0, symName: __ZNSt3__115basic_stringbufIcNS_11char_traitsIcEENS_9allocatorIcEEED1Ev, symObjAddr: 0x98D0, symBinAddr: 0x10000ED1C, symSize: 0x2C }
  - { offsetInCU: 0x32858, offset: 0x32858, size: 0x8, addend: 0x0, symName: __ZNSt3__115basic_stringbufIcNS_11char_traitsIcEENS_9allocatorIcEEED2Ev, symObjAddr: 0x98FC, symBinAddr: 0x10000ED48, symSize: 0x48 }
  - { offsetInCU: 0x32885, offset: 0x32885, size: 0x8, addend: 0x0, symName: __ZNSt3__116allocator_traitsINS_9allocatorIcEEE37select_on_container_copy_constructionB8ue170006IS2_vvEES2_RKS2_, symObjAddr: 0x9944, symBinAddr: 0x10000ED90, symSize: 0x10 }
  - { offsetInCU: 0x328B4, offset: 0x328B4, size: 0x8, addend: 0x0, symName: __ZNKSt3__112basic_stringIcNS_11char_traitsIcEENS_9allocatorIcEEE13get_allocatorB8ue170006Ev, symObjAddr: 0x9954, symBinAddr: 0x10000EDA0, symSize: 0x24 }
  - { offsetInCU: 0x328DA, offset: 0x328DA, size: 0x8, addend: 0x0, symName: __ZNSt3__112basic_stringIcNS_11char_traitsIcEENS_9allocatorIcEEEC1B8ue170006ENS_24__uninitialized_size_tagEmRKS4_, symObjAddr: 0x9978, symBinAddr: 0x10000EDC4, symSize: 0x3C }
  - { offsetInCU: 0x3292E, offset: 0x3292E, size: 0x8, addend: 0x0, symName: __ZNSt3__111char_traitsIcE4copyB8ue170006EPcPKcm, symObjAddr: 0x99B4, symBinAddr: 0x10000EE00, symSize: 0x40 }
  - { offsetInCU: 0x3296D, offset: 0x3296D, size: 0x8, addend: 0x0, symName: __ZNSt3__111char_traitsIcE6assignB8ue170006EPcmc, symObjAddr: 0x99F4, symBinAddr: 0x10000EE40, symSize: 0x44 }
  - { offsetInCU: 0x329AC, offset: 0x329AC, size: 0x8, addend: 0x0, symName: __ZNSt3__112basic_stringIcNS_11char_traitsIcEENS_9allocatorIcEEEC2B8ue170006ENS_24__uninitialized_size_tagEmRKS4_, symObjAddr: 0x9A38, symBinAddr: 0x10000EE84, symSize: 0x110 }
  - { offsetInCU: 0x32A2C, offset: 0x32A2C, size: 0x8, addend: 0x0, symName: __ZNSt3__116allocator_traitsINS_9allocatorIcEEE8allocateB8ue170006ERS2_m, symObjAddr: 0x9B48, symBinAddr: 0x10000EF94, symSize: 0x2C }
  - { offsetInCU: 0x32A87, offset: 0x32A87, size: 0x8, addend: 0x0, symName: __ZNKSt3__114__copy_trivialclB8ue170006IKccLi0EEENS_4pairIPT_PT0_EES5_S5_S7_, symObjAddr: 0x9D94, symBinAddr: 0x10000F1E0, symSize: 0x48 }
  - { offsetInCU: 0x32B12, offset: 0x32B12, size: 0x8, addend: 0x0, symName: __ZNSt3__14pairIPKcS2_EC1B8ue170006IS2_S2_LPv0EEEOT_OT0_, symObjAddr: 0x9EFC, symBinAddr: 0x10000F348, symSize: 0x3C }
  - { offsetInCU: 0x32B70, offset: 0x32B70, size: 0x8, addend: 0x0, symName: __ZNSt3__14pairIPKcS2_EC2B8ue170006IS2_S2_LPv0EEEOT_OT0_, symObjAddr: 0x9F38, symBinAddr: 0x10000F384, symSize: 0x34 }
  - { offsetInCU: 0x32BCE, offset: 0x32BCE, size: 0x8, addend: 0x0, symName: __ZNSt3__118__unwrap_iter_implIPKcLb1EE8__unwrapB8ue170006ES2_, symObjAddr: 0x9F6C, symBinAddr: 0x10000F3B8, symSize: 0x24 }
  - { offsetInCU: 0x32BFD, offset: 0x32BFD, size: 0x8, addend: 0x0, symName: __ZNSt3__14pairIPKcPcEC1B8ue170006IRS2_S3_LPv0EEEOT_OT0_, symObjAddr: 0xA0A4, symBinAddr: 0x10000F4F0, symSize: 0x3C }
  - { offsetInCU: 0x32C5B, offset: 0x32C5B, size: 0x8, addend: 0x0, symName: __ZNSt3__14pairIPKcPcEC2B8ue170006IRS2_S3_LPv0EEEOT_OT0_, symObjAddr: 0xA0E0, symBinAddr: 0x10000F52C, symSize: 0x34 }
  - { offsetInCU: 0x32CB9, offset: 0x32CB9, size: 0x8, addend: 0x0, symName: __ZNSt3__118__unwrap_iter_implIPcLb1EE8__unwrapB8ue170006ES1_, symObjAddr: 0xA114, symBinAddr: 0x10000F560, symSize: 0x24 }
  - { offsetInCU: 0x32CDC, offset: 0x32CDC, size: 0x8, addend: 0x0, symName: __ZNSt3__14pairIPKcPcEC1B8ue170006IS2_S3_LPv0EEEOT_OT0_, symObjAddr: 0xA138, symBinAddr: 0x10000F584, symSize: 0x3C }
  - { offsetInCU: 0x32D3A, offset: 0x32D3A, size: 0x8, addend: 0x0, symName: __ZNSt3__14pairIPKcPcEC2B8ue170006IS2_S3_LPv0EEEOT_OT0_, symObjAddr: 0xA174, symBinAddr: 0x10000F5C0, symSize: 0x34 }
  - { offsetInCU: 0x32D98, offset: 0x32D98, size: 0x8, addend: 0x0, symName: __ZNSt3__118__unwrap_iter_implIPKcLb1EE8__rewrapB8ue170006ES2_S2_, symObjAddr: 0xA1E4, symBinAddr: 0x10000F630, symSize: 0x48 }
  - { offsetInCU: 0x32DC9, offset: 0x32DC9, size: 0x8, addend: 0x0, symName: __ZNSt3__118__unwrap_iter_implIPcLb1EE8__rewrapB8ue170006ES1_S1_, symObjAddr: 0xA22C, symBinAddr: 0x10000F678, symSize: 0x48 }
  - { offsetInCU: 0x32DFA, offset: 0x32DFA, size: 0x8, addend: 0x0, symName: __ZNSt3__112basic_stringIcNS_11char_traitsIcEENS_9allocatorIcEEE6appendB8ue170006ERKS5_, symObjAddr: 0xA330, symBinAddr: 0x10000F77C, symSize: 0x4C }
  - { offsetInCU: 0x32E2F, offset: 0x32E2F, size: 0x8, addend: 0x0, symName: __ZNSt3__16threadC2IRFvRKNS_12basic_stringIcNS_11char_traitsIcEENS_9allocatorIcEEEEEJS9_EvEEOT_DpOT0_, symObjAddr: 0xA37C, symBinAddr: 0x10000F7C8, symSize: 0x170 }
  - { offsetInCU: 0x32EBA, offset: 0x32EBA, size: 0x8, addend: 0x0, symName: __ZNSt3__110unique_ptrINS_15__thread_structENS_14default_deleteIS1_EEEC1B8ue170006ILb1EvEEPS1_, symObjAddr: 0xA4EC, symBinAddr: 0x10000F938, symSize: 0x34 }
  - { offsetInCU: 0x32EFD, offset: 0x32EFD, size: 0x8, addend: 0x0, symName: __ZNSt3__15tupleIJNS_10unique_ptrINS_15__thread_structENS_14default_deleteIS2_EEEEPFvRKNS_12basic_stringIcNS_11char_traitsIcEENS_9allocatorIcEEEEESB_EEC1B8ue170006IJS5_RSE_SD_ELi0EEEDpOT_, symObjAddr: 0xA520, symBinAddr: 0x10000F96C, symSize: 0x44 }
  - { offsetInCU: 0x33016, offset: 0x33016, size: 0x8, addend: 0x0, symName: __ZNSt3__110unique_ptrINS_5tupleIJNS0_INS_15__thread_structENS_14default_deleteIS2_EEEEPFvRKNS_12basic_stringIcNS_11char_traitsIcEENS_9allocatorIcEEEEESB_EEENS3_ISG_EEEC1B8ue170006ILb1EvEEPSG_, symObjAddr: 0xA564, symBinAddr: 0x10000F9B0, symSize: 0x34 }
  - { offsetInCU: 0x33059, offset: 0x33059, size: 0x8, addend: 0x0, symName: __ZNKSt3__110unique_ptrINS_5tupleIJNS0_INS_15__thread_structENS_14default_deleteIS2_EEEEPFvRKNS_12basic_stringIcNS_11char_traitsIcEENS_9allocatorIcEEEEESB_EEENS3_ISG_EEE3getB8ue170006Ev, symObjAddr: 0xA660, symBinAddr: 0x10000FAAC, symSize: 0x28 }
  - { offsetInCU: 0x3307F, offset: 0x3307F, size: 0x8, addend: 0x0, symName: __ZNSt3__110unique_ptrINS_5tupleIJNS0_INS_15__thread_structENS_14default_deleteIS2_EEEEPFvRKNS_12basic_stringIcNS_11char_traitsIcEENS_9allocatorIcEEEEESB_EEENS3_ISG_EEE7releaseB8ue170006Ev, symObjAddr: 0xA688, symBinAddr: 0x10000FAD4, symSize: 0x44 }
  - { offsetInCU: 0x330B4, offset: 0x330B4, size: 0x8, addend: 0x0, symName: __ZNSt3__110unique_ptrINS_5tupleIJNS0_INS_15__thread_structENS_14default_deleteIS2_EEEEPFvRKNS_12basic_stringIcNS_11char_traitsIcEENS_9allocatorIcEEEEESB_EEENS3_ISG_EEED1B8ue170006Ev, symObjAddr: 0xA6CC, symBinAddr: 0x10000FB18, symSize: 0x2C }
  - { offsetInCU: 0x330DE, offset: 0x330DE, size: 0x8, addend: 0x0, symName: __ZNSt3__110unique_ptrINS_15__thread_structENS_14default_deleteIS1_EEED1B8ue170006Ev, symObjAddr: 0xA6F8, symBinAddr: 0x10000FB44, symSize: 0x2C }
  - { offsetInCU: 0x33108, offset: 0x33108, size: 0x8, addend: 0x0, symName: __ZNSt3__110unique_ptrINS_15__thread_structENS_14default_deleteIS1_EEEC2B8ue170006ILb1EvEEPS1_, symObjAddr: 0xA724, symBinAddr: 0x10000FB70, symSize: 0x44 }
  - { offsetInCU: 0x33151, offset: 0x33151, size: 0x8, addend: 0x0, symName: __ZNSt3__117__compressed_pairIPNS_15__thread_structENS_14default_deleteIS1_EEEC1B8ue170006IRS2_NS_16__value_init_tagEEEOT_OT0_, symObjAddr: 0xA768, symBinAddr: 0x10000FBB4, symSize: 0x3C }
  - { offsetInCU: 0x331A9, offset: 0x331A9, size: 0x8, addend: 0x0, symName: __ZNSt3__117__compressed_pairIPNS_15__thread_structENS_14default_deleteIS1_EEEC2B8ue170006IRS2_NS_16__value_init_tagEEEOT_OT0_, symObjAddr: 0xA7A4, symBinAddr: 0x10000FBF0, symSize: 0x40 }
  - { offsetInCU: 0x33201, offset: 0x33201, size: 0x8, addend: 0x0, symName: __ZNSt3__122__compressed_pair_elemIPNS_15__thread_structELi0ELb0EEC2B8ue170006IRS2_vEEOT_, symObjAddr: 0xA7E4, symBinAddr: 0x10000FC30, symSize: 0x24 }
  - { offsetInCU: 0x33243, offset: 0x33243, size: 0x8, addend: 0x0, symName: __ZNSt3__122__compressed_pair_elemINS_14default_deleteINS_15__thread_structEEELi1ELb1EEC2B8ue170006ENS_16__value_init_tagE, symObjAddr: 0xA808, symBinAddr: 0x10000FC54, symSize: 0x14 }
  - { offsetInCU: 0x33277, offset: 0x33277, size: 0x8, addend: 0x0, symName: __ZNSt3__15tupleIJNS_10unique_ptrINS_15__thread_structENS_14default_deleteIS2_EEEEPFvRKNS_12basic_stringIcNS_11char_traitsIcEENS_9allocatorIcEEEEESB_EEC2B8ue170006IJS5_RSE_SD_ELi0EEEDpOT_, symObjAddr: 0xA81C, symBinAddr: 0x10000FC68, symSize: 0x44 }
  - { offsetInCU: 0x332E9, offset: 0x332E9, size: 0x8, addend: 0x0, symName: __ZNSt3__112__tuple_implINS_15__tuple_indicesIJLm0ELm1ELm2EEEEJNS_10unique_ptrINS_15__thread_structENS_14default_deleteIS4_EEEEPFvRKNS_12basic_stringIcNS_11char_traitsIcEENS_9allocatorIcEEEEESD_EEC1B8ue170006IJLm0ELm1ELm2EEJS7_SH_SD_EJEJEJS7_RSG_SF_EEENS1_IJXspT_EEEENS_13__tuple_typesIJDpT0_EEENS1_IJXspT1_EEEENSM_IJDpT2_EEEDpOT3_, symObjAddr: 0xA860, symBinAddr: 0x10000FCAC, symSize: 0x44 }
  - { offsetInCU: 0x333BC, offset: 0x333BC, size: 0x8, addend: 0x0, symName: __ZNSt3__112__tuple_implINS_15__tuple_indicesIJLm0ELm1ELm2EEEEJNS_10unique_ptrINS_15__thread_structENS_14default_deleteIS4_EEEEPFvRKNS_12basic_stringIcNS_11char_traitsIcEENS_9allocatorIcEEEEESD_EEC2B8ue170006IJLm0ELm1ELm2EEJS7_SH_SD_EJEJEJS7_RSG_SF_EEENS1_IJXspT_EEEENS_13__tuple_typesIJDpT0_EEENS1_IJXspT1_EEEENSM_IJDpT2_EEEDpOT3_, symObjAddr: 0xA8A4, symBinAddr: 0x10000FCF0, symSize: 0x84 }
  - { offsetInCU: 0x3348F, offset: 0x3348F, size: 0x8, addend: 0x0, symName: __ZNSt3__112__tuple_leafILm0ENS_10unique_ptrINS_15__thread_structENS_14default_deleteIS2_EEEELb0EEC2B8ue170006IS5_vEEOT_, symObjAddr: 0xA928, symBinAddr: 0x10000FD74, symSize: 0x34 }
  - { offsetInCU: 0x334D2, offset: 0x334D2, size: 0x8, addend: 0x0, symName: __ZNSt3__112__tuple_leafILm1EPFvRKNS_12basic_stringIcNS_11char_traitsIcEENS_9allocatorIcEEEEELb0EEC2B8ue170006IRS9_vEEOT_, symObjAddr: 0xA95C, symBinAddr: 0x10000FDA8, symSize: 0x20 }
  - { offsetInCU: 0x33515, offset: 0x33515, size: 0x8, addend: 0x0, symName: __ZNSt3__112__tuple_leafILm2ENS_12basic_stringIcNS_11char_traitsIcEENS_9allocatorIcEEEELb0EEC2B8ue170006IRKS6_vEEOT_, symObjAddr: 0xA97C, symBinAddr: 0x10000FDC8, symSize: 0x34 }
  - { offsetInCU: 0x33558, offset: 0x33558, size: 0x8, addend: 0x0, symName: __ZNSt3__112__tuple_leafILm0ENS_10unique_ptrINS_15__thread_structENS_14default_deleteIS2_EEEELb0EED2Ev, symObjAddr: 0xA9B0, symBinAddr: 0x10000FDFC, symSize: 0x2C }
  - { offsetInCU: 0x33585, offset: 0x33585, size: 0x8, addend: 0x0, symName: __ZNSt3__110unique_ptrINS_15__thread_structENS_14default_deleteIS1_EEEC1B8ue170006EOS4_, symObjAddr: 0xA9DC, symBinAddr: 0x10000FE28, symSize: 0x34 }
  - { offsetInCU: 0x335BD, offset: 0x335BD, size: 0x8, addend: 0x0, symName: __ZNSt3__110unique_ptrINS_15__thread_structENS_14default_deleteIS1_EEEC2B8ue170006EOS4_, symObjAddr: 0xAA10, symBinAddr: 0x10000FE5C, symSize: 0x60 }
  - { offsetInCU: 0x335F5, offset: 0x335F5, size: 0x8, addend: 0x0, symName: __ZNSt3__110unique_ptrINS_15__thread_structENS_14default_deleteIS1_EEE7releaseB8ue170006Ev, symObjAddr: 0xAA70, symBinAddr: 0x10000FEBC, symSize: 0x44 }
  - { offsetInCU: 0x3362A, offset: 0x3362A, size: 0x8, addend: 0x0, symName: __ZNSt3__110unique_ptrINS_15__thread_structENS_14default_deleteIS1_EEE11get_deleterB8ue170006Ev, symObjAddr: 0xAAB4, symBinAddr: 0x10000FF00, symSize: 0x24 }
  - { offsetInCU: 0x3365C, offset: 0x3365C, size: 0x8, addend: 0x0, symName: __ZNSt3__117__compressed_pairIPNS_15__thread_structENS_14default_deleteIS1_EEEC1B8ue170006IS2_S4_EEOT_OT0_, symObjAddr: 0xAAD8, symBinAddr: 0x10000FF24, symSize: 0x3C }
  - { offsetInCU: 0x336B4, offset: 0x336B4, size: 0x8, addend: 0x0, symName: __ZNSt3__117__compressed_pairIPNS_15__thread_structENS_14default_deleteIS1_EEE5firstB8ue170006Ev, symObjAddr: 0xAB14, symBinAddr: 0x10000FF60, symSize: 0x24 }
  - { offsetInCU: 0x336DA, offset: 0x336DA, size: 0x8, addend: 0x0, symName: __ZNSt3__122__compressed_pair_elemIPNS_15__thread_structELi0ELb0EE5__getB8ue170006Ev, symObjAddr: 0xAB38, symBinAddr: 0x10000FF84, symSize: 0x14 }
  - { offsetInCU: 0x33700, offset: 0x33700, size: 0x8, addend: 0x0, symName: __ZNSt3__117__compressed_pairIPNS_15__thread_structENS_14default_deleteIS1_EEE6secondB8ue170006Ev, symObjAddr: 0xAB4C, symBinAddr: 0x10000FF98, symSize: 0x24 }
  - { offsetInCU: 0x33726, offset: 0x33726, size: 0x8, addend: 0x0, symName: __ZNSt3__122__compressed_pair_elemINS_14default_deleteINS_15__thread_structEEELi1ELb1EE5__getB8ue170006Ev, symObjAddr: 0xAB70, symBinAddr: 0x10000FFBC, symSize: 0x14 }
  - { offsetInCU: 0x3374C, offset: 0x3374C, size: 0x8, addend: 0x0, symName: __ZNSt3__117__compressed_pairIPNS_15__thread_structENS_14default_deleteIS1_EEEC2B8ue170006IS2_S4_EEOT_OT0_, symObjAddr: 0xAB84, symBinAddr: 0x10000FFD0, symSize: 0x44 }
  - { offsetInCU: 0x337A4, offset: 0x337A4, size: 0x8, addend: 0x0, symName: __ZNSt3__122__compressed_pair_elemIPNS_15__thread_structELi0ELb0EEC2B8ue170006IS2_vEEOT_, symObjAddr: 0xABC8, symBinAddr: 0x100010014, symSize: 0x24 }
  - { offsetInCU: 0x337E6, offset: 0x337E6, size: 0x8, addend: 0x0, symName: __ZNSt3__122__compressed_pair_elemINS_14default_deleteINS_15__thread_structEEELi1ELb1EEC2B8ue170006IS3_vEEOT_, symObjAddr: 0xABEC, symBinAddr: 0x100010038, symSize: 0x18 }
  - { offsetInCU: 0x33828, offset: 0x33828, size: 0x8, addend: 0x0, symName: __ZNSt3__110unique_ptrINS_5tupleIJNS0_INS_15__thread_structENS_14default_deleteIS2_EEEEPFvRKNS_12basic_stringIcNS_11char_traitsIcEENS_9allocatorIcEEEEESB_EEENS3_ISG_EEEC2B8ue170006ILb1EvEEPSG_, symObjAddr: 0xAC04, symBinAddr: 0x100010050, symSize: 0x44 }
  - { offsetInCU: 0x3386B, offset: 0x3386B, size: 0x8, addend: 0x0, symName: __ZNSt3__117__compressed_pairIPNS_5tupleIJNS_10unique_ptrINS_15__thread_structENS_14default_deleteIS3_EEEEPFvRKNS_12basic_stringIcNS_11char_traitsIcEENS_9allocatorIcEEEEESC_EEENS4_ISH_EEEC1B8ue170006IRSI_NS_16__value_init_tagEEEOT_OT0_, symObjAddr: 0xAC48, symBinAddr: 0x100010094, symSize: 0x3C }
  - { offsetInCU: 0x338C3, offset: 0x338C3, size: 0x8, addend: 0x0, symName: __ZNSt3__117__compressed_pairIPNS_5tupleIJNS_10unique_ptrINS_15__thread_structENS_14default_deleteIS3_EEEEPFvRKNS_12basic_stringIcNS_11char_traitsIcEENS_9allocatorIcEEEEESC_EEENS4_ISH_EEEC2B8ue170006IRSI_NS_16__value_init_tagEEEOT_OT0_, symObjAddr: 0xAC84, symBinAddr: 0x1000100D0, symSize: 0x40 }
  - { offsetInCU: 0x3391B, offset: 0x3391B, size: 0x8, addend: 0x0, symName: __ZNSt3__122__compressed_pair_elemIPNS_5tupleIJNS_10unique_ptrINS_15__thread_structENS_14default_deleteIS3_EEEEPFvRKNS_12basic_stringIcNS_11char_traitsIcEENS_9allocatorIcEEEEESC_EEELi0ELb0EEC2B8ue170006IRSI_vEEOT_, symObjAddr: 0xACC4, symBinAddr: 0x100010110, symSize: 0x24 }
  - { offsetInCU: 0x3395D, offset: 0x3395D, size: 0x8, addend: 0x0, symName: __ZNSt3__122__compressed_pair_elemINS_14default_deleteINS_5tupleIJNS_10unique_ptrINS_15__thread_structENS1_IS4_EEEEPFvRKNS_12basic_stringIcNS_11char_traitsIcEENS_9allocatorIcEEEEESC_EEEEELi1ELb1EEC2B8ue170006ENS_16__value_init_tagE, symObjAddr: 0xACE8, symBinAddr: 0x100010134, symSize: 0x14 }
  - { offsetInCU: 0x339C4, offset: 0x339C4, size: 0x8, addend: 0x0, symName: __ZNSt3__121__thread_specific_ptrINS_15__thread_structEE11set_pointerEPS1_, symObjAddr: 0xACFC, symBinAddr: 0x100010148, symSize: 0x30 }
  - { offsetInCU: 0x339F9, offset: 0x339F9, size: 0x8, addend: 0x0, symName: __ZNSt3__112__tuple_leafILm0ENS_10unique_ptrINS_15__thread_structENS_14default_deleteIS2_EEEELb0EE3getB8ue170006Ev, symObjAddr: 0xADB8, symBinAddr: 0x100010204, symSize: 0x14 }
  - { offsetInCU: 0x33A1F, offset: 0x33A1F, size: 0x8, addend: 0x0, symName: __ZNSt3__112__tuple_leafILm1EPFvRKNS_12basic_stringIcNS_11char_traitsIcEENS_9allocatorIcEEEEELb0EE3getB8ue170006Ev, symObjAddr: 0xAE4C, symBinAddr: 0x100010298, symSize: 0x14 }
  - { offsetInCU: 0x33A45, offset: 0x33A45, size: 0x8, addend: 0x0, symName: __ZNSt3__112__tuple_leafILm2ENS_12basic_stringIcNS_11char_traitsIcEENS_9allocatorIcEEEELb0EE3getB8ue170006Ev, symObjAddr: 0xAE60, symBinAddr: 0x1000102AC, symSize: 0x14 }
  - { offsetInCU: 0x33A6B, offset: 0x33A6B, size: 0x8, addend: 0x0, symName: __ZNKSt3__117__compressed_pairIPNS_5tupleIJNS_10unique_ptrINS_15__thread_structENS_14default_deleteIS3_EEEEPFvRKNS_12basic_stringIcNS_11char_traitsIcEENS_9allocatorIcEEEEESC_EEENS4_ISH_EEE5firstB8ue170006Ev, symObjAddr: 0xAE74, symBinAddr: 0x1000102C0, symSize: 0x24 }
  - { offsetInCU: 0x33A91, offset: 0x33A91, size: 0x8, addend: 0x0, symName: __ZNKSt3__122__compressed_pair_elemIPNS_5tupleIJNS_10unique_ptrINS_15__thread_structENS_14default_deleteIS3_EEEEPFvRKNS_12basic_stringIcNS_11char_traitsIcEENS_9allocatorIcEEEEESC_EEELi0ELb0EE5__getB8ue170006Ev, symObjAddr: 0xAE98, symBinAddr: 0x1000102E4, symSize: 0x14 }
  - { offsetInCU: 0x33AB7, offset: 0x33AB7, size: 0x8, addend: 0x0, symName: __ZNSt3__117__compressed_pairIPNS_5tupleIJNS_10unique_ptrINS_15__thread_structENS_14default_deleteIS3_EEEEPFvRKNS_12basic_stringIcNS_11char_traitsIcEENS_9allocatorIcEEEEESC_EEENS4_ISH_EEE5firstB8ue170006Ev, symObjAddr: 0xAEAC, symBinAddr: 0x1000102F8, symSize: 0x24 }
  - { offsetInCU: 0x33ADD, offset: 0x33ADD, size: 0x8, addend: 0x0, symName: __ZNSt3__122__compressed_pair_elemIPNS_5tupleIJNS_10unique_ptrINS_15__thread_structENS_14default_deleteIS3_EEEEPFvRKNS_12basic_stringIcNS_11char_traitsIcEENS_9allocatorIcEEEEESC_EEELi0ELb0EE5__getB8ue170006Ev, symObjAddr: 0xAED0, symBinAddr: 0x10001031C, symSize: 0x14 }
  - { offsetInCU: 0x33B03, offset: 0x33B03, size: 0x8, addend: 0x0, symName: __ZNSt3__110unique_ptrINS_5tupleIJNS0_INS_15__thread_structENS_14default_deleteIS2_EEEEPFvRKNS_12basic_stringIcNS_11char_traitsIcEENS_9allocatorIcEEEEESB_EEENS3_ISG_EEED2B8ue170006Ev, symObjAddr: 0xAEE4, symBinAddr: 0x100010330, symSize: 0x30 }
  - { offsetInCU: 0x33B2D, offset: 0x33B2D, size: 0x8, addend: 0x0, symName: __ZNSt3__110unique_ptrINS_5tupleIJNS0_INS_15__thread_structENS_14default_deleteIS2_EEEEPFvRKNS_12basic_stringIcNS_11char_traitsIcEENS_9allocatorIcEEEEESB_EEENS3_ISG_EEE5resetB8ue170006EPSG_, symObjAddr: 0xAF14, symBinAddr: 0x100010360, symSize: 0x78 }
  - { offsetInCU: 0x33B71, offset: 0x33B71, size: 0x8, addend: 0x0, symName: __ZNSt3__117__compressed_pairIPNS_5tupleIJNS_10unique_ptrINS_15__thread_structENS_14default_deleteIS3_EEEEPFvRKNS_12basic_stringIcNS_11char_traitsIcEENS_9allocatorIcEEEEESC_EEENS4_ISH_EEE6secondB8ue170006Ev, symObjAddr: 0xAF8C, symBinAddr: 0x1000103D8, symSize: 0x24 }
  - { offsetInCU: 0x33B97, offset: 0x33B97, size: 0x8, addend: 0x0, symName: __ZNKSt3__114default_deleteINS_5tupleIJNS_10unique_ptrINS_15__thread_structENS0_IS3_EEEEPFvRKNS_12basic_stringIcNS_11char_traitsIcEENS_9allocatorIcEEEEESB_EEEEclB8ue170006EPSG_, symObjAddr: 0xAFB0, symBinAddr: 0x1000103FC, symSize: 0x4C }
  - { offsetInCU: 0x33BCB, offset: 0x33BCB, size: 0x8, addend: 0x0, symName: __ZNSt3__122__compressed_pair_elemINS_14default_deleteINS_5tupleIJNS_10unique_ptrINS_15__thread_structENS1_IS4_EEEEPFvRKNS_12basic_stringIcNS_11char_traitsIcEENS_9allocatorIcEEEEESC_EEEEELi1ELb1EE5__getB8ue170006Ev, symObjAddr: 0xAFFC, symBinAddr: 0x100010448, symSize: 0x14 }
  - { offsetInCU: 0x33BF1, offset: 0x33BF1, size: 0x8, addend: 0x0, symName: __ZNSt3__15tupleIJNS_10unique_ptrINS_15__thread_structENS_14default_deleteIS2_EEEEPFvRKNS_12basic_stringIcNS_11char_traitsIcEENS_9allocatorIcEEEEESB_EED1Ev, symObjAddr: 0xB010, symBinAddr: 0x10001045C, symSize: 0x2C }
  - { offsetInCU: 0x33C1E, offset: 0x33C1E, size: 0x8, addend: 0x0, symName: __ZNSt3__15tupleIJNS_10unique_ptrINS_15__thread_structENS_14default_deleteIS2_EEEEPFvRKNS_12basic_stringIcNS_11char_traitsIcEENS_9allocatorIcEEEEESB_EED2Ev, symObjAddr: 0xB03C, symBinAddr: 0x100010488, symSize: 0x2C }
  - { offsetInCU: 0x33C4B, offset: 0x33C4B, size: 0x8, addend: 0x0, symName: __ZNSt3__112__tuple_implINS_15__tuple_indicesIJLm0ELm1ELm2EEEEJNS_10unique_ptrINS_15__thread_structENS_14default_deleteIS4_EEEEPFvRKNS_12basic_stringIcNS_11char_traitsIcEENS_9allocatorIcEEEEESD_EED1Ev, symObjAddr: 0xB068, symBinAddr: 0x1000104B4, symSize: 0x2C }
  - { offsetInCU: 0x33C78, offset: 0x33C78, size: 0x8, addend: 0x0, symName: __ZNSt3__112__tuple_implINS_15__tuple_indicesIJLm0ELm1ELm2EEEEJNS_10unique_ptrINS_15__thread_structENS_14default_deleteIS4_EEEEPFvRKNS_12basic_stringIcNS_11char_traitsIcEENS_9allocatorIcEEEEESD_EED2Ev, symObjAddr: 0xB094, symBinAddr: 0x1000104E0, symSize: 0x38 }
  - { offsetInCU: 0x33CA5, offset: 0x33CA5, size: 0x8, addend: 0x0, symName: __ZNSt3__112__tuple_leafILm2ENS_12basic_stringIcNS_11char_traitsIcEENS_9allocatorIcEEEELb0EED2Ev, symObjAddr: 0xB0CC, symBinAddr: 0x100010518, symSize: 0x2C }
  - { offsetInCU: 0x33CD2, offset: 0x33CD2, size: 0x8, addend: 0x0, symName: __ZNSt3__110unique_ptrINS_15__thread_structENS_14default_deleteIS1_EEED2B8ue170006Ev, symObjAddr: 0xB0F8, symBinAddr: 0x100010544, symSize: 0x30 }
  - { offsetInCU: 0x33CFC, offset: 0x33CFC, size: 0x8, addend: 0x0, symName: __ZNSt3__110unique_ptrINS_15__thread_structENS_14default_deleteIS1_EEE5resetB8ue170006EPS1_, symObjAddr: 0xB128, symBinAddr: 0x100010574, symSize: 0x78 }
  - { offsetInCU: 0x33D40, offset: 0x33D40, size: 0x8, addend: 0x0, symName: __ZNKSt3__114default_deleteINS_15__thread_structEEclB8ue170006EPS1_, symObjAddr: 0xB1A0, symBinAddr: 0x1000105EC, symSize: 0x4C }
  - { offsetInCU: 0x33D74, offset: 0x33D74, size: 0x8, addend: 0x0, symName: __ZNSt3__16vectorINS_6threadENS_9allocatorIS1_EEEC2B8ue170006Ev, symObjAddr: 0xB1EC, symBinAddr: 0x100010638, symSize: 0x4C }
  - { offsetInCU: 0x33D9E, offset: 0x33D9E, size: 0x8, addend: 0x0, symName: __ZNSt3__117__compressed_pairIPNS_6threadENS_9allocatorIS1_EEEC1B8ue170006IDnNS_18__default_init_tagEEEOT_OT0_, symObjAddr: 0xB238, symBinAddr: 0x100010684, symSize: 0x3C }
  - { offsetInCU: 0x33DF6, offset: 0x33DF6, size: 0x8, addend: 0x0, symName: __ZNSt3__117__compressed_pairIPNS_6threadENS_9allocatorIS1_EEEC2B8ue170006IDnNS_18__default_init_tagEEEOT_OT0_, symObjAddr: 0xB274, symBinAddr: 0x1000106C0, symSize: 0x40 }
  - { offsetInCU: 0x33E4E, offset: 0x33E4E, size: 0x8, addend: 0x0, symName: __ZNSt3__122__compressed_pair_elemIPNS_6threadELi0ELb0EEC2B8ue170006IDnvEEOT_, symObjAddr: 0xB2B4, symBinAddr: 0x100010700, symSize: 0x1C }
  - { offsetInCU: 0x33E90, offset: 0x33E90, size: 0x8, addend: 0x0, symName: __ZNSt3__122__compressed_pair_elemINS_9allocatorINS_6threadEEELi1ELb1EEC2B8ue170006ENS_18__default_init_tagE, symObjAddr: 0xB2D0, symBinAddr: 0x10001071C, symSize: 0x2C }
  - { offsetInCU: 0x33EC4, offset: 0x33EC4, size: 0x8, addend: 0x0, symName: __ZNSt3__19allocatorINS_6threadEEC2B8ue170006Ev, symObjAddr: 0xB2FC, symBinAddr: 0x100010748, symSize: 0x2C }
  - { offsetInCU: 0x33EEE, offset: 0x33EEE, size: 0x8, addend: 0x0, symName: __ZNSt3__116__non_trivial_ifILb1ENS_9allocatorINS_6threadEEEEC2B8ue170006Ev, symObjAddr: 0xB328, symBinAddr: 0x100010774, symSize: 0x14 }
  - { offsetInCU: 0x33F18, offset: 0x33F18, size: 0x8, addend: 0x0, symName: __ZNSt3__16vectorINS_6threadENS_9allocatorIS1_EEED2B8ue170006Ev, symObjAddr: 0xB33C, symBinAddr: 0x100010788, symSize: 0x44 }
  - { offsetInCU: 0x33F42, offset: 0x33F42, size: 0x8, addend: 0x0, symName: __ZNSt3__16vectorINS_6threadENS_9allocatorIS1_EEE16__destroy_vectorC1B8ue170006ERS4_, symObjAddr: 0xB380, symBinAddr: 0x1000107CC, symSize: 0x34 }
  - { offsetInCU: 0x33F7B, offset: 0x33F7B, size: 0x8, addend: 0x0, symName: __ZNSt3__16vectorINS_6threadENS_9allocatorIS1_EEE16__destroy_vectorclB8ue170006Ev, symObjAddr: 0xB3B4, symBinAddr: 0x100010800, symSize: 0x90 }
  - { offsetInCU: 0x33FA1, offset: 0x33FA1, size: 0x8, addend: 0x0, symName: __ZNSt3__16vectorINS_6threadENS_9allocatorIS1_EEE16__destroy_vectorC2B8ue170006ERS4_, symObjAddr: 0xB444, symBinAddr: 0x100010890, symSize: 0x20 }
  - { offsetInCU: 0x33FDA, offset: 0x33FDA, size: 0x8, addend: 0x0, symName: __ZNSt3__16vectorINS_6threadENS_9allocatorIS1_EEE7__clearB8ue170006Ev, symObjAddr: 0xB464, symBinAddr: 0x1000108B0, symSize: 0x28 }
  - { offsetInCU: 0x34000, offset: 0x34000, size: 0x8, addend: 0x0, symName: __ZNKSt3__16vectorINS_6threadENS_9allocatorIS1_EEE17__annotate_deleteB8ue170006Ev, symObjAddr: 0xB48C, symBinAddr: 0x1000108D8, symSize: 0xB8 }
  - { offsetInCU: 0x34026, offset: 0x34026, size: 0x8, addend: 0x0, symName: __ZNSt3__116allocator_traitsINS_9allocatorINS_6threadEEEE10deallocateB8ue170006ERS3_PS2_m, symObjAddr: 0xB544, symBinAddr: 0x100010990, symSize: 0x34 }
  - { offsetInCU: 0x34068, offset: 0x34068, size: 0x8, addend: 0x0, symName: __ZNSt3__16vectorINS_6threadENS_9allocatorIS1_EEE7__allocB8ue170006Ev, symObjAddr: 0xB578, symBinAddr: 0x1000109C4, symSize: 0x28 }
  - { offsetInCU: 0x3408E, offset: 0x3408E, size: 0x8, addend: 0x0, symName: __ZNKSt3__16vectorINS_6threadENS_9allocatorIS1_EEE8capacityB8ue170006Ev, symObjAddr: 0xB5A0, symBinAddr: 0x1000109EC, symSize: 0x40 }
  - { offsetInCU: 0x340B4, offset: 0x340B4, size: 0x8, addend: 0x0, symName: __ZNSt3__16vectorINS_6threadENS_9allocatorIS1_EEE22__base_destruct_at_endB8ue170006EPS1_, symObjAddr: 0xB5E0, symBinAddr: 0x100010A2C, symSize: 0x8C }
  - { offsetInCU: 0x340F8, offset: 0x340F8, size: 0x8, addend: 0x0, symName: __ZNSt3__116allocator_traitsINS_9allocatorINS_6threadEEEE7destroyB8ue170006IS2_vEEvRS3_PT_, symObjAddr: 0xB66C, symBinAddr: 0x100010AB8, symSize: 0x2C }
  - { offsetInCU: 0x34135, offset: 0x34135, size: 0x8, addend: 0x0, symName: __ZNSt3__19allocatorINS_6threadEE7destroyB8ue170006EPS1_, symObjAddr: 0xB6AC, symBinAddr: 0x100010AF8, symSize: 0x28 }
  - { offsetInCU: 0x34169, offset: 0x34169, size: 0x8, addend: 0x0, symName: __ZNKSt3__16vectorINS_6threadENS_9allocatorIS1_EEE31__annotate_contiguous_containerB8ue170006EPKvS6_S6_S6_, symObjAddr: 0xB6D4, symBinAddr: 0x100010B20, symSize: 0x20 }
  - { offsetInCU: 0x341BF, offset: 0x341BF, size: 0x8, addend: 0x0, symName: __ZNKSt3__16vectorINS_6threadENS_9allocatorIS1_EEE4dataB8ue170006Ev, symObjAddr: 0xB6F4, symBinAddr: 0x100010B40, symSize: 0x28 }
  - { offsetInCU: 0x341E5, offset: 0x341E5, size: 0x8, addend: 0x0, symName: __ZNKSt3__16vectorINS_6threadENS_9allocatorIS1_EEE4sizeB8ue170006Ev, symObjAddr: 0xB71C, symBinAddr: 0x100010B68, symSize: 0x28 }
  - { offsetInCU: 0x3420B, offset: 0x3420B, size: 0x8, addend: 0x0, symName: __ZNSt3__19allocatorINS_6threadEE10deallocateB8ue170006EPS1_m, symObjAddr: 0xB744, symBinAddr: 0x100010B90, symSize: 0x40 }
  - { offsetInCU: 0x3424D, offset: 0x3424D, size: 0x8, addend: 0x0, symName: __ZNSt3__117__compressed_pairIPNS_6threadENS_9allocatorIS1_EEE6secondB8ue170006Ev, symObjAddr: 0xB784, symBinAddr: 0x100010BD0, symSize: 0x24 }
  - { offsetInCU: 0x34273, offset: 0x34273, size: 0x8, addend: 0x0, symName: __ZNSt3__122__compressed_pair_elemINS_9allocatorINS_6threadEEELi1ELb1EE5__getB8ue170006Ev, symObjAddr: 0xB7A8, symBinAddr: 0x100010BF4, symSize: 0x14 }
  - { offsetInCU: 0x34299, offset: 0x34299, size: 0x8, addend: 0x0, symName: __ZNKSt3__16vectorINS_6threadENS_9allocatorIS1_EEE9__end_capB8ue170006Ev, symObjAddr: 0xB7BC, symBinAddr: 0x100010C08, symSize: 0x28 }
  - { offsetInCU: 0x342BF, offset: 0x342BF, size: 0x8, addend: 0x0, symName: __ZNKSt3__117__compressed_pairIPNS_6threadENS_9allocatorIS1_EEE5firstB8ue170006Ev, symObjAddr: 0xB7E4, symBinAddr: 0x100010C30, symSize: 0x24 }
  - { offsetInCU: 0x342E5, offset: 0x342E5, size: 0x8, addend: 0x0, symName: __ZNKSt3__122__compressed_pair_elemIPNS_6threadELi0ELb0EE5__getB8ue170006Ev, symObjAddr: 0xB808, symBinAddr: 0x100010C54, symSize: 0x14 }
  - { offsetInCU: 0x3430B, offset: 0x3430B, size: 0x8, addend: 0x0, symName: __ZNSt3__16vectorINS_6threadENS_9allocatorIS1_EEE9__end_capB8ue170006Ev, symObjAddr: 0xB81C, symBinAddr: 0x100010C68, symSize: 0x28 }
  - { offsetInCU: 0x34331, offset: 0x34331, size: 0x8, addend: 0x0, symName: __ZNSt3__16vectorINS_6threadENS_9allocatorIS1_EEE22__construct_one_at_endB8ue170006IJRFvvEEEEvDpOT_, symObjAddr: 0xB844, symBinAddr: 0x100010C90, symSize: 0x90 }
  - { offsetInCU: 0x34380, offset: 0x34380, size: 0x8, addend: 0x0, symName: __ZNSt3__16vectorINS_6threadENS_9allocatorIS1_EEE24__emplace_back_slow_pathIJRFvvEEEEvDpOT_, symObjAddr: 0xB8D4, symBinAddr: 0x100010D20, symSize: 0xD8 }
  - { offsetInCU: 0x343E0, offset: 0x343E0, size: 0x8, addend: 0x0, symName: __ZNSt3__16vectorINS_6threadENS_9allocatorIS1_EEE4backB8ue170006Ev, symObjAddr: 0xB9AC, symBinAddr: 0x100010DF8, symSize: 0x1C }
  - { offsetInCU: 0x34406, offset: 0x34406, size: 0x8, addend: 0x0, symName: __ZNSt3__117__compressed_pairIPNS_6threadENS_9allocatorIS1_EEE5firstB8ue170006Ev, symObjAddr: 0xB9C8, symBinAddr: 0x100010E14, symSize: 0x24 }
  - { offsetInCU: 0x3442C, offset: 0x3442C, size: 0x8, addend: 0x0, symName: __ZNSt3__122__compressed_pair_elemIPNS_6threadELi0ELb0EE5__getB8ue170006Ev, symObjAddr: 0xB9EC, symBinAddr: 0x100010E38, symSize: 0x14 }
  - { offsetInCU: 0x3446E, offset: 0x3446E, size: 0x8, addend: 0x0, symName: __ZNSt3__16vectorINS_6threadENS_9allocatorIS1_EEE21_ConstructTransactionC1B8ue170006ERS4_m, symObjAddr: 0xBA00, symBinAddr: 0x100010E4C, symSize: 0x3C }
  - { offsetInCU: 0x344B6, offset: 0x344B6, size: 0x8, addend: 0x0, symName: __ZNSt3__116allocator_traitsINS_9allocatorINS_6threadEEEE9constructB8ue170006IS2_JRFvvEEvEEvRS3_PT_DpOT0_, symObjAddr: 0xBA3C, symBinAddr: 0x100010E88, symSize: 0x34 }
  - { offsetInCU: 0x3450D, offset: 0x3450D, size: 0x8, addend: 0x0, symName: __ZNSt3__16vectorINS_6threadENS_9allocatorIS1_EEE21_ConstructTransactionD1B8ue170006Ev, symObjAddr: 0xBA70, symBinAddr: 0x100010EBC, symSize: 0x2C }
  - { offsetInCU: 0x34537, offset: 0x34537, size: 0x8, addend: 0x0, symName: __ZNSt3__16vectorINS_6threadENS_9allocatorIS1_EEE21_ConstructTransactionC2B8ue170006ERS4_m, symObjAddr: 0xBA9C, symBinAddr: 0x100010EE8, symSize: 0x44 }
  - { offsetInCU: 0x3457F, offset: 0x3457F, size: 0x8, addend: 0x0, symName: __ZNSt3__19allocatorINS_6threadEE9constructB8ue170006IS1_JRFvvEEEEvPT_DpOT0_, symObjAddr: 0xBAE0, symBinAddr: 0x100010F2C, symSize: 0x30 }
  - { offsetInCU: 0x345D5, offset: 0x345D5, size: 0x8, addend: 0x0, symName: __ZNSt3__16threadC1IRFvvEJEvEEOT_DpOT0_, symObjAddr: 0xBB10, symBinAddr: 0x100010F5C, symSize: 0x34 }
  - { offsetInCU: 0x3461C, offset: 0x3461C, size: 0x8, addend: 0x0, symName: __ZNSt3__16threadC2IRFvvEJEvEEOT_DpOT0_, symObjAddr: 0xBB44, symBinAddr: 0x100010F90, symSize: 0x148 }
  - { offsetInCU: 0x34693, offset: 0x34693, size: 0x8, addend: 0x0, symName: __ZNSt3__15tupleIJNS_10unique_ptrINS_15__thread_structENS_14default_deleteIS2_EEEEPFvvEEEC1B8ue170006IJS5_RS6_ELi0EEEDpOT_, symObjAddr: 0xBC8C, symBinAddr: 0x1000110D8, symSize: 0x3C }
  - { offsetInCU: 0x34798, offset: 0x34798, size: 0x8, addend: 0x0, symName: __ZNSt3__110unique_ptrINS_5tupleIJNS0_INS_15__thread_structENS_14default_deleteIS2_EEEEPFvvEEEENS3_IS8_EEEC1B8ue170006ILb1EvEEPS8_, symObjAddr: 0xBCC8, symBinAddr: 0x100011114, symSize: 0x34 }
  - { offsetInCU: 0x347DB, offset: 0x347DB, size: 0x8, addend: 0x0, symName: __ZNKSt3__110unique_ptrINS_5tupleIJNS0_INS_15__thread_structENS_14default_deleteIS2_EEEEPFvvEEEENS3_IS8_EEE3getB8ue170006Ev, symObjAddr: 0xBD8C, symBinAddr: 0x1000111D8, symSize: 0x28 }
  - { offsetInCU: 0x34801, offset: 0x34801, size: 0x8, addend: 0x0, symName: __ZNSt3__110unique_ptrINS_5tupleIJNS0_INS_15__thread_structENS_14default_deleteIS2_EEEEPFvvEEEENS3_IS8_EEE7releaseB8ue170006Ev, symObjAddr: 0xBDB4, symBinAddr: 0x100011200, symSize: 0x44 }
  - { offsetInCU: 0x34836, offset: 0x34836, size: 0x8, addend: 0x0, symName: __ZNSt3__110unique_ptrINS_5tupleIJNS0_INS_15__thread_structENS_14default_deleteIS2_EEEEPFvvEEEENS3_IS8_EEED1B8ue170006Ev, symObjAddr: 0xBDF8, symBinAddr: 0x100011244, symSize: 0x2C }
  - { offsetInCU: 0x34860, offset: 0x34860, size: 0x8, addend: 0x0, symName: __ZNSt3__15tupleIJNS_10unique_ptrINS_15__thread_structENS_14default_deleteIS2_EEEEPFvvEEEC2B8ue170006IJS5_RS6_ELi0EEEDpOT_, symObjAddr: 0xBE24, symBinAddr: 0x100011270, symSize: 0x3C }
  - { offsetInCU: 0x348BE, offset: 0x348BE, size: 0x8, addend: 0x0, symName: __ZNSt3__112__tuple_implINS_15__tuple_indicesIJLm0ELm1EEEEJNS_10unique_ptrINS_15__thread_structENS_14default_deleteIS4_EEEEPFvvEEEC1B8ue170006IJLm0ELm1EEJS7_S9_EJEJEJS7_RS8_EEENS1_IJXspT_EEEENS_13__tuple_typesIJDpT0_EEENS1_IJXspT1_EEEENSE_IJDpT2_EEEDpOT3_, symObjAddr: 0xBE60, symBinAddr: 0x1000112AC, symSize: 0x3C }
  - { offsetInCU: 0x34972, offset: 0x34972, size: 0x8, addend: 0x0, symName: __ZNSt3__112__tuple_implINS_15__tuple_indicesIJLm0ELm1EEEEJNS_10unique_ptrINS_15__thread_structENS_14default_deleteIS4_EEEEPFvvEEEC2B8ue170006IJLm0ELm1EEJS7_S9_EJEJEJS7_RS8_EEENS1_IJXspT_EEEENS_13__tuple_typesIJDpT0_EEENS1_IJXspT1_EEEENSE_IJDpT2_EEEDpOT3_, symObjAddr: 0xBE9C, symBinAddr: 0x1000112E8, symSize: 0x48 }
  - { offsetInCU: 0x34A26, offset: 0x34A26, size: 0x8, addend: 0x0, symName: __ZNSt3__112__tuple_leafILm1EPFvvELb0EEC2B8ue170006IRS1_vEEOT_, symObjAddr: 0xBEE4, symBinAddr: 0x100011330, symSize: 0x20 }
  - { offsetInCU: 0x34A69, offset: 0x34A69, size: 0x8, addend: 0x0, symName: __ZNSt3__110unique_ptrINS_5tupleIJNS0_INS_15__thread_structENS_14default_deleteIS2_EEEEPFvvEEEENS3_IS8_EEEC2B8ue170006ILb1EvEEPS8_, symObjAddr: 0xBF04, symBinAddr: 0x100011350, symSize: 0x44 }
  - { offsetInCU: 0x34AAC, offset: 0x34AAC, size: 0x8, addend: 0x0, symName: __ZNSt3__117__compressed_pairIPNS_5tupleIJNS_10unique_ptrINS_15__thread_structENS_14default_deleteIS3_EEEEPFvvEEEENS4_IS9_EEEC1B8ue170006IRSA_NS_16__value_init_tagEEEOT_OT0_, symObjAddr: 0xBF48, symBinAddr: 0x100011394, symSize: 0x3C }
  - { offsetInCU: 0x34B04, offset: 0x34B04, size: 0x8, addend: 0x0, symName: __ZNSt3__117__compressed_pairIPNS_5tupleIJNS_10unique_ptrINS_15__thread_structENS_14default_deleteIS3_EEEEPFvvEEEENS4_IS9_EEEC2B8ue170006IRSA_NS_16__value_init_tagEEEOT_OT0_, symObjAddr: 0xBF84, symBinAddr: 0x1000113D0, symSize: 0x40 }
  - { offsetInCU: 0x34B5C, offset: 0x34B5C, size: 0x8, addend: 0x0, symName: __ZNSt3__122__compressed_pair_elemIPNS_5tupleIJNS_10unique_ptrINS_15__thread_structENS_14default_deleteIS3_EEEEPFvvEEEELi0ELb0EEC2B8ue170006IRSA_vEEOT_, symObjAddr: 0xBFC4, symBinAddr: 0x100011410, symSize: 0x24 }
  - { offsetInCU: 0x34B9E, offset: 0x34B9E, size: 0x8, addend: 0x0, symName: __ZNSt3__122__compressed_pair_elemINS_14default_deleteINS_5tupleIJNS_10unique_ptrINS_15__thread_structENS1_IS4_EEEEPFvvEEEEEELi1ELb1EEC2B8ue170006ENS_16__value_init_tagE, symObjAddr: 0xBFE8, symBinAddr: 0x100011434, symSize: 0x14 }
  - { offsetInCU: 0x34BD2, offset: 0x34BD2, size: 0x8, addend: 0x0, symName: __ZNSt3__112__tuple_leafILm1EPFvvELb0EE3getB8ue170006Ev, symObjAddr: 0xC098, symBinAddr: 0x1000114E4, symSize: 0x14 }
  - { offsetInCU: 0x34BF8, offset: 0x34BF8, size: 0x8, addend: 0x0, symName: __ZNKSt3__117__compressed_pairIPNS_5tupleIJNS_10unique_ptrINS_15__thread_structENS_14default_deleteIS3_EEEEPFvvEEEENS4_IS9_EEE5firstB8ue170006Ev, symObjAddr: 0xC0AC, symBinAddr: 0x1000114F8, symSize: 0x24 }
  - { offsetInCU: 0x34C1E, offset: 0x34C1E, size: 0x8, addend: 0x0, symName: __ZNKSt3__122__compressed_pair_elemIPNS_5tupleIJNS_10unique_ptrINS_15__thread_structENS_14default_deleteIS3_EEEEPFvvEEEELi0ELb0EE5__getB8ue170006Ev, symObjAddr: 0xC0D0, symBinAddr: 0x10001151C, symSize: 0x14 }
  - { offsetInCU: 0x34C44, offset: 0x34C44, size: 0x8, addend: 0x0, symName: __ZNSt3__117__compressed_pairIPNS_5tupleIJNS_10unique_ptrINS_15__thread_structENS_14default_deleteIS3_EEEEPFvvEEEENS4_IS9_EEE5firstB8ue170006Ev, symObjAddr: 0xC0E4, symBinAddr: 0x100011530, symSize: 0x24 }
  - { offsetInCU: 0x34C6A, offset: 0x34C6A, size: 0x8, addend: 0x0, symName: __ZNSt3__122__compressed_pair_elemIPNS_5tupleIJNS_10unique_ptrINS_15__thread_structENS_14default_deleteIS3_EEEEPFvvEEEELi0ELb0EE5__getB8ue170006Ev, symObjAddr: 0xC108, symBinAddr: 0x100011554, symSize: 0x14 }
  - { offsetInCU: 0x34C90, offset: 0x34C90, size: 0x8, addend: 0x0, symName: __ZNSt3__110unique_ptrINS_5tupleIJNS0_INS_15__thread_structENS_14default_deleteIS2_EEEEPFvvEEEENS3_IS8_EEED2B8ue170006Ev, symObjAddr: 0xC11C, symBinAddr: 0x100011568, symSize: 0x30 }
  - { offsetInCU: 0x34CBA, offset: 0x34CBA, size: 0x8, addend: 0x0, symName: __ZNSt3__110unique_ptrINS_5tupleIJNS0_INS_15__thread_structENS_14default_deleteIS2_EEEEPFvvEEEENS3_IS8_EEE5resetB8ue170006EPS8_, symObjAddr: 0xC14C, symBinAddr: 0x100011598, symSize: 0x78 }
  - { offsetInCU: 0x34CFE, offset: 0x34CFE, size: 0x8, addend: 0x0, symName: __ZNSt3__117__compressed_pairIPNS_5tupleIJNS_10unique_ptrINS_15__thread_structENS_14default_deleteIS3_EEEEPFvvEEEENS4_IS9_EEE6secondB8ue170006Ev, symObjAddr: 0xC1C4, symBinAddr: 0x100011610, symSize: 0x24 }
  - { offsetInCU: 0x34D24, offset: 0x34D24, size: 0x8, addend: 0x0, symName: __ZNKSt3__114default_deleteINS_5tupleIJNS_10unique_ptrINS_15__thread_structENS0_IS3_EEEEPFvvEEEEEclB8ue170006EPS8_, symObjAddr: 0xC1E8, symBinAddr: 0x100011634, symSize: 0x4C }
  - { offsetInCU: 0x34D58, offset: 0x34D58, size: 0x8, addend: 0x0, symName: __ZNSt3__122__compressed_pair_elemINS_14default_deleteINS_5tupleIJNS_10unique_ptrINS_15__thread_structENS1_IS4_EEEEPFvvEEEEEELi1ELb1EE5__getB8ue170006Ev, symObjAddr: 0xC234, symBinAddr: 0x100011680, symSize: 0x14 }
  - { offsetInCU: 0x34D7E, offset: 0x34D7E, size: 0x8, addend: 0x0, symName: __ZNSt3__15tupleIJNS_10unique_ptrINS_15__thread_structENS_14default_deleteIS2_EEEEPFvvEEED1Ev, symObjAddr: 0xC248, symBinAddr: 0x100011694, symSize: 0x2C }
  - { offsetInCU: 0x34DAB, offset: 0x34DAB, size: 0x8, addend: 0x0, symName: __ZNSt3__15tupleIJNS_10unique_ptrINS_15__thread_structENS_14default_deleteIS2_EEEEPFvvEEED2Ev, symObjAddr: 0xC274, symBinAddr: 0x1000116C0, symSize: 0x2C }
  - { offsetInCU: 0x34DD8, offset: 0x34DD8, size: 0x8, addend: 0x0, symName: __ZNSt3__112__tuple_implINS_15__tuple_indicesIJLm0ELm1EEEEJNS_10unique_ptrINS_15__thread_structENS_14default_deleteIS4_EEEEPFvvEEED1Ev, symObjAddr: 0xC2A0, symBinAddr: 0x1000116EC, symSize: 0x2C }
  - { offsetInCU: 0x34E05, offset: 0x34E05, size: 0x8, addend: 0x0, symName: __ZNSt3__112__tuple_implINS_15__tuple_indicesIJLm0ELm1EEEEJNS_10unique_ptrINS_15__thread_structENS_14default_deleteIS4_EEEEPFvvEEED2Ev, symObjAddr: 0xC2CC, symBinAddr: 0x100011718, symSize: 0x2C }
  - { offsetInCU: 0x34E32, offset: 0x34E32, size: 0x8, addend: 0x0, symName: __ZNSt3__16vectorINS_6threadENS_9allocatorIS1_EEE21_ConstructTransactionD2B8ue170006Ev, symObjAddr: 0xC2F8, symBinAddr: 0x100011744, symSize: 0x20 }
  - { offsetInCU: 0x34E5C, offset: 0x34E5C, size: 0x8, addend: 0x0, symName: __ZNKSt3__16vectorINS_6threadENS_9allocatorIS1_EEE11__recommendB8ue170006Em, symObjAddr: 0xC318, symBinAddr: 0x100011764, symSize: 0xB4 }
  - { offsetInCU: 0x34EB1, offset: 0x34EB1, size: 0x8, addend: 0x0, symName: __ZNSt3__114__split_bufferINS_6threadERNS_9allocatorIS1_EEEC1EmmS4_, symObjAddr: 0xC3CC, symBinAddr: 0x100011818, symSize: 0x44 }
  - { offsetInCU: 0x34F07, offset: 0x34F07, size: 0x8, addend: 0x0, symName: __ZNSt3__114__split_bufferINS_6threadERNS_9allocatorIS1_EEED1Ev, symObjAddr: 0xC520, symBinAddr: 0x10001196C, symSize: 0x2C }
  - { offsetInCU: 0x34F33, offset: 0x34F33, size: 0x8, addend: 0x0, symName: __ZNKSt3__16vectorINS_6threadENS_9allocatorIS1_EEE8max_sizeEv, symObjAddr: 0xC54C, symBinAddr: 0x100011998, symSize: 0x60 }
  - { offsetInCU: 0x34F5B, offset: 0x34F5B, size: 0x8, addend: 0x0, symName: __ZNKSt3__16vectorINS_6threadENS_9allocatorIS1_EEE20__throw_length_errorB8ue170006Ev, symObjAddr: 0xC5AC, symBinAddr: 0x1000119F8, symSize: 0x1C }
  - { offsetInCU: 0x34F8C, offset: 0x34F8C, size: 0x8, addend: 0x0, symName: __ZNSt3__116allocator_traitsINS_9allocatorINS_6threadEEEE8max_sizeB8ue170006IS3_vEEmRKS3_, symObjAddr: 0xC5F4, symBinAddr: 0x100011A40, symSize: 0x24 }
  - { offsetInCU: 0x34FBA, offset: 0x34FBA, size: 0x8, addend: 0x0, symName: __ZNKSt3__16vectorINS_6threadENS_9allocatorIS1_EEE7__allocB8ue170006Ev, symObjAddr: 0xC618, symBinAddr: 0x100011A64, symSize: 0x28 }
  - { offsetInCU: 0x34FE0, offset: 0x34FE0, size: 0x8, addend: 0x0, symName: __ZNSt3__114numeric_limitsIlE3maxB8ue170006Ev, symObjAddr: 0xC640, symBinAddr: 0x100011A8C, symSize: 0x14 }
  - { offsetInCU: 0x34FF4, offset: 0x34FF4, size: 0x8, addend: 0x0, symName: __ZNKSt3__19allocatorINS_6threadEE8max_sizeB8ue170006Ev, symObjAddr: 0xC6A8, symBinAddr: 0x100011AF4, symSize: 0x14 }
  - { offsetInCU: 0x3501A, offset: 0x3501A, size: 0x8, addend: 0x0, symName: __ZNKSt3__117__compressed_pairIPNS_6threadENS_9allocatorIS1_EEE6secondB8ue170006Ev, symObjAddr: 0xC6BC, symBinAddr: 0x100011B08, symSize: 0x24 }
  - { offsetInCU: 0x35040, offset: 0x35040, size: 0x8, addend: 0x0, symName: __ZNKSt3__122__compressed_pair_elemINS_9allocatorINS_6threadEEELi1ELb1EE5__getB8ue170006Ev, symObjAddr: 0xC6E0, symBinAddr: 0x100011B2C, symSize: 0x14 }
  - { offsetInCU: 0x35066, offset: 0x35066, size: 0x8, addend: 0x0, symName: __ZNSt3__123__libcpp_numeric_limitsIlLb1EE3maxB8ue170006Ev, symObjAddr: 0xC6F4, symBinAddr: 0x100011B40, symSize: 0x8 }
  - { offsetInCU: 0x3507A, offset: 0x3507A, size: 0x8, addend: 0x0, symName: __ZNSt3__114__split_bufferINS_6threadERNS_9allocatorIS1_EEEC2EmmS4_, symObjAddr: 0xC6FC, symBinAddr: 0x100011B48, symSize: 0xD4 }
  - { offsetInCU: 0x350ED, offset: 0x350ED, size: 0x8, addend: 0x0, symName: __ZNSt3__117__compressed_pairIPNS_6threadERNS_9allocatorIS1_EEEC1B8ue170006IDnS5_EEOT_OT0_, symObjAddr: 0xC7D0, symBinAddr: 0x100011C1C, symSize: 0x3C }
  - { offsetInCU: 0x35145, offset: 0x35145, size: 0x8, addend: 0x0, symName: __ZNSt3__114__split_bufferINS_6threadERNS_9allocatorIS1_EEE7__allocB8ue170006Ev, symObjAddr: 0xC84C, symBinAddr: 0x100011C98, symSize: 0x28 }
  - { offsetInCU: 0x3516B, offset: 0x3516B, size: 0x8, addend: 0x0, symName: __ZNSt3__114__split_bufferINS_6threadERNS_9allocatorIS1_EEE9__end_capB8ue170006Ev, symObjAddr: 0xC874, symBinAddr: 0x100011CC0, symSize: 0x28 }
  - { offsetInCU: 0x35191, offset: 0x35191, size: 0x8, addend: 0x0, symName: __ZNSt3__117__compressed_pairIPNS_6threadERNS_9allocatorIS1_EEEC2B8ue170006IDnS5_EEOT_OT0_, symObjAddr: 0xC89C, symBinAddr: 0x100011CE8, symSize: 0x48 }
  - { offsetInCU: 0x351E9, offset: 0x351E9, size: 0x8, addend: 0x0, symName: __ZNSt3__122__compressed_pair_elemIRNS_9allocatorINS_6threadEEELi1ELb0EEC2B8ue170006IS4_vEEOT_, symObjAddr: 0xC8E4, symBinAddr: 0x100011D30, symSize: 0x20 }
  - { offsetInCU: 0x3522B, offset: 0x3522B, size: 0x8, addend: 0x0, symName: __ZNSt3__19allocatorINS_6threadEE8allocateB8ue170006Em, symObjAddr: 0xC904, symBinAddr: 0x100011D50, symSize: 0x58 }
  - { offsetInCU: 0x3525F, offset: 0x3525F, size: 0x8, addend: 0x0, symName: __ZNSt3__117__compressed_pairIPNS_6threadERNS_9allocatorIS1_EEE6secondB8ue170006Ev, symObjAddr: 0xC95C, symBinAddr: 0x100011DA8, symSize: 0x28 }
  - { offsetInCU: 0x35285, offset: 0x35285, size: 0x8, addend: 0x0, symName: __ZNSt3__122__compressed_pair_elemIRNS_9allocatorINS_6threadEEELi1ELb0EE5__getB8ue170006Ev, symObjAddr: 0xC984, symBinAddr: 0x100011DD0, symSize: 0x18 }
  - { offsetInCU: 0x352AB, offset: 0x352AB, size: 0x8, addend: 0x0, symName: __ZNSt3__117__compressed_pairIPNS_6threadERNS_9allocatorIS1_EEE5firstB8ue170006Ev, symObjAddr: 0xC99C, symBinAddr: 0x100011DE8, symSize: 0x24 }
  - { offsetInCU: 0x352D1, offset: 0x352D1, size: 0x8, addend: 0x0, symName: __ZNSt3__116reverse_iteratorIPNS_6threadEEC1B8ue170006ES2_, symObjAddr: 0xCAEC, symBinAddr: 0x100011F38, symSize: 0x34 }
  - { offsetInCU: 0x35309, offset: 0x35309, size: 0x8, addend: 0x0, symName: __ZNKSt3__116reverse_iteratorIPNS_6threadEE4baseB8ue170006Ev, symObjAddr: 0xCB20, symBinAddr: 0x100011F6C, symSize: 0x18 }
  - { offsetInCU: 0x3532F, offset: 0x3532F, size: 0x8, addend: 0x0, symName: __ZNKSt3__16vectorINS_6threadENS_9allocatorIS1_EEE14__annotate_newB8ue170006Em, symObjAddr: 0xCB74, symBinAddr: 0x100011FC0, symSize: 0xAC }
  - { offsetInCU: 0x35364, offset: 0x35364, size: 0x8, addend: 0x0, symName: __ZNSt3__129_AllocatorDestroyRangeReverseINS_9allocatorINS_6threadEEENS_16reverse_iteratorIPS2_EEEC1B8ue170006ERS3_RS6_S9_, symObjAddr: 0xCC6C, symBinAddr: 0x1000120B8, symSize: 0x44 }
  - { offsetInCU: 0x353BB, offset: 0x353BB, size: 0x8, addend: 0x0, symName: __ZNSt3__116allocator_traitsINS_9allocatorINS_6threadEEEE9constructB8ue170006IS2_JS2_EvEEvRS3_PT_DpOT0_, symObjAddr: 0xCCF8, symBinAddr: 0x100012144, symSize: 0x34 }
  - { offsetInCU: 0x35412, offset: 0x35412, size: 0x8, addend: 0x0, symName: __ZNKSt3__116reverse_iteratorIPNS_6threadEEdeB8ue170006Ev, symObjAddr: 0xCD50, symBinAddr: 0x10001219C, symSize: 0x28 }
  - { offsetInCU: 0x35446, offset: 0x35446, size: 0x8, addend: 0x0, symName: __ZNSt3__116reverse_iteratorIPNS_6threadEEppB8ue170006Ev, symObjAddr: 0xCD78, symBinAddr: 0x1000121C4, symSize: 0x20 }
  - { offsetInCU: 0x3546C, offset: 0x3546C, size: 0x8, addend: 0x0, symName: __ZNSt3__128__exception_guard_exceptionsINS_29_AllocatorDestroyRangeReverseINS_9allocatorINS_6threadEEENS_16reverse_iteratorIPS3_EEEEE10__completeB8ue170006Ev, symObjAddr: 0xCD98, symBinAddr: 0x1000121E4, symSize: 0x1C }
  - { offsetInCU: 0x35492, offset: 0x35492, size: 0x8, addend: 0x0, symName: __ZNSt3__128__exception_guard_exceptionsINS_29_AllocatorDestroyRangeReverseINS_9allocatorINS_6threadEEENS_16reverse_iteratorIPS3_EEEEED1B8ue170006Ev, symObjAddr: 0xCDB4, symBinAddr: 0x100012200, symSize: 0x2C }
  - { offsetInCU: 0x354BC, offset: 0x354BC, size: 0x8, addend: 0x0, symName: __ZNSt3__128__exception_guard_exceptionsINS_29_AllocatorDestroyRangeReverseINS_9allocatorINS_6threadEEENS_16reverse_iteratorIPS3_EEEEEC1B8ue170006ES8_, symObjAddr: 0xCDE0, symBinAddr: 0x10001222C, symSize: 0x34 }
  - { offsetInCU: 0x354F5, offset: 0x354F5, size: 0x8, addend: 0x0, symName: __ZNSt3__128__exception_guard_exceptionsINS_29_AllocatorDestroyRangeReverseINS_9allocatorINS_6threadEEENS_16reverse_iteratorIPS3_EEEEEC2B8ue170006ES8_, symObjAddr: 0xCE14, symBinAddr: 0x100012260, symSize: 0x30 }
  - { offsetInCU: 0x3552E, offset: 0x3552E, size: 0x8, addend: 0x0, symName: __ZNSt3__129_AllocatorDestroyRangeReverseINS_9allocatorINS_6threadEEENS_16reverse_iteratorIPS2_EEEC2B8ue170006ERS3_RS6_S9_, symObjAddr: 0xCE44, symBinAddr: 0x100012290, symSize: 0x38 }
  - { offsetInCU: 0x35585, offset: 0x35585, size: 0x8, addend: 0x0, symName: __ZNSt3__19allocatorINS_6threadEE9constructB8ue170006IS1_JS1_EEEvPT_DpOT0_, symObjAddr: 0xCE7C, symBinAddr: 0x1000122C8, symSize: 0x30 }
  - { offsetInCU: 0x355DB, offset: 0x355DB, size: 0x8, addend: 0x0, symName: __ZNSt3__16threadC1B8ue170006EOS0_, symObjAddr: 0xCEAC, symBinAddr: 0x1000122F8, symSize: 0x34 }
  - { offsetInCU: 0x35613, offset: 0x35613, size: 0x8, addend: 0x0, symName: __ZNSt3__16threadC2B8ue170006EOS0_, symObjAddr: 0xCEE0, symBinAddr: 0x10001232C, symSize: 0x2C }
  - { offsetInCU: 0x35651, offset: 0x35651, size: 0x8, addend: 0x0, symName: __ZNSt3__119__to_address_helperINS_16reverse_iteratorIPNS_6threadEEEvE6__callB8ue170006ERKS4_, symObjAddr: 0xCF0C, symBinAddr: 0x100012358, symSize: 0x38 }
  - { offsetInCU: 0x35674, offset: 0x35674, size: 0x8, addend: 0x0, symName: __ZNKSt3__116reverse_iteratorIPNS_6threadEEptB8ue170006Ev, symObjAddr: 0xCF44, symBinAddr: 0x100012390, symSize: 0x24 }
  - { offsetInCU: 0x3569A, offset: 0x3569A, size: 0x8, addend: 0x0, symName: __ZNSt3__128__exception_guard_exceptionsINS_29_AllocatorDestroyRangeReverseINS_9allocatorINS_6threadEEENS_16reverse_iteratorIPS3_EEEEED2B8ue170006Ev, symObjAddr: 0xCF68, symBinAddr: 0x1000123B4, symSize: 0x50 }
  - { offsetInCU: 0x356C4, offset: 0x356C4, size: 0x8, addend: 0x0, symName: __ZNKSt3__129_AllocatorDestroyRangeReverseINS_9allocatorINS_6threadEEENS_16reverse_iteratorIPS2_EEEclB8ue170006Ev, symObjAddr: 0xCFB8, symBinAddr: 0x100012404, symSize: 0xB4 }
  - { offsetInCU: 0x356EB, offset: 0x356EB, size: 0x8, addend: 0x0, symName: __ZNSt3__116reverse_iteratorINS0_IPNS_6threadEEEEC1B8ue170006ES3_, symObjAddr: 0xD0DC, symBinAddr: 0x100012528, symSize: 0x3C }
  - { offsetInCU: 0x35723, offset: 0x35723, size: 0x8, addend: 0x0, symName: __ZNSt3__116reverse_iteratorINS0_IPNS_6threadEEEEppB8ue170006Ev, symObjAddr: 0xD19C, symBinAddr: 0x1000125E8, symSize: 0x30 }
  - { offsetInCU: 0x35749, offset: 0x35749, size: 0x8, addend: 0x0, symName: __ZNKSt3__116reverse_iteratorINS0_IPNS_6threadEEEE4baseB8ue170006Ev, symObjAddr: 0xD1CC, symBinAddr: 0x100012618, symSize: 0x24 }
  - { offsetInCU: 0x35775, offset: 0x35775, size: 0x8, addend: 0x0, symName: __ZNSt3__119__to_address_helperINS_16reverse_iteratorINS1_IPNS_6threadEEEEEvE6__callB8ue170006ERKS5_, symObjAddr: 0xD1F0, symBinAddr: 0x10001263C, symSize: 0x38 }
  - { offsetInCU: 0x35798, offset: 0x35798, size: 0x8, addend: 0x0, symName: __ZNKSt3__116reverse_iteratorINS0_IPNS_6threadEEEEptB8ue170006Ev, symObjAddr: 0xD228, symBinAddr: 0x100012674, symSize: 0x24 }
  - { offsetInCU: 0x357BE, offset: 0x357BE, size: 0x8, addend: 0x0, symName: __ZNKSt3__116reverse_iteratorINS0_IPNS_6threadEEEEdeB8ue170006Ev, symObjAddr: 0xD24C, symBinAddr: 0x100012698, symSize: 0x34 }
  - { offsetInCU: 0x357F2, offset: 0x357F2, size: 0x8, addend: 0x0, symName: __ZNSt3__116reverse_iteratorIPNS_6threadEEmmB8ue170006Ev, symObjAddr: 0xD280, symBinAddr: 0x1000126CC, symSize: 0x20 }
  - { offsetInCU: 0x35818, offset: 0x35818, size: 0x8, addend: 0x0, symName: __ZNSt3__116reverse_iteratorINS0_IPNS_6threadEEEEC2B8ue170006ES3_, symObjAddr: 0xD2A0, symBinAddr: 0x1000126EC, symSize: 0x2C }
  - { offsetInCU: 0x35850, offset: 0x35850, size: 0x8, addend: 0x0, symName: __ZNSt3__116reverse_iteratorIPNS_6threadEEC2B8ue170006ES2_, symObjAddr: 0xD2CC, symBinAddr: 0x100012718, symSize: 0x28 }
  - { offsetInCU: 0x35888, offset: 0x35888, size: 0x8, addend: 0x0, symName: __ZNSt3__114__split_bufferINS_6threadERNS_9allocatorIS1_EEED2Ev, symObjAddr: 0xD2F4, symBinAddr: 0x100012740, symSize: 0x8C }
  - { offsetInCU: 0x358B4, offset: 0x358B4, size: 0x8, addend: 0x0, symName: __ZNSt3__114__split_bufferINS_6threadERNS_9allocatorIS1_EEE5clearB8ue170006Ev, symObjAddr: 0xD380, symBinAddr: 0x1000127CC, symSize: 0x28 }
  - { offsetInCU: 0x358DA, offset: 0x358DA, size: 0x8, addend: 0x0, symName: __ZNKSt3__114__split_bufferINS_6threadERNS_9allocatorIS1_EEE8capacityB8ue170006Ev, symObjAddr: 0xD3A8, symBinAddr: 0x1000127F4, symSize: 0x40 }
  - { offsetInCU: 0x35900, offset: 0x35900, size: 0x8, addend: 0x0, symName: __ZNSt3__114__split_bufferINS_6threadERNS_9allocatorIS1_EEE17__destruct_at_endB8ue170006EPS1_, symObjAddr: 0xD3E8, symBinAddr: 0x100012834, symSize: 0x2C }
  - { offsetInCU: 0x35934, offset: 0x35934, size: 0x8, addend: 0x0, symName: __ZNSt3__114__split_bufferINS_6threadERNS_9allocatorIS1_EEE17__destruct_at_endB8ue170006EPS1_NS_17integral_constantIbLb0EEE, symObjAddr: 0xD414, symBinAddr: 0x100012860, symSize: 0x80 }
  - { offsetInCU: 0x35974, offset: 0x35974, size: 0x8, addend: 0x0, symName: __ZNKSt3__114__split_bufferINS_6threadERNS_9allocatorIS1_EEE9__end_capB8ue170006Ev, symObjAddr: 0xD494, symBinAddr: 0x1000128E0, symSize: 0x28 }
  - { offsetInCU: 0x3599A, offset: 0x3599A, size: 0x8, addend: 0x0, symName: __ZNKSt3__117__compressed_pairIPNS_6threadERNS_9allocatorIS1_EEE5firstB8ue170006Ev, symObjAddr: 0xD4BC, symBinAddr: 0x100012908, symSize: 0x24 }
  - { offsetInCU: 0x359C0, offset: 0x359C0, size: 0x8, addend: 0x0, symName: __ZNSt3__16vectorINS_6threadENS_9allocatorIS1_EEE11__make_iterB8ue170006EPS1_, symObjAddr: 0xD4E0, symBinAddr: 0x10001292C, symSize: 0x30 }
  - { offsetInCU: 0x359F5, offset: 0x359F5, size: 0x8, addend: 0x0, symName: __ZNSt3__111__wrap_iterIPNS_6threadEEC1B8ue170006ES2_, symObjAddr: 0xD510, symBinAddr: 0x10001295C, symSize: 0x34 }
  - { offsetInCU: 0x35A2D, offset: 0x35A2D, size: 0x8, addend: 0x0, symName: __ZNSt3__111__wrap_iterIPNS_6threadEEC2B8ue170006ES2_, symObjAddr: 0xD544, symBinAddr: 0x100012990, symSize: 0x20 }
...
